(dp1
V14-09-5395968
p2
(dp3
S'Draws'
p4
I0
sS'WindowObject'
p5
NsS'Wins'
p6
I8
sS'Notes'
p7
S''
sS'Losses'
p8
I2
sS'Players'
p9
V546
p10
sS'Place'
p11
V12
p12
sS'Location'
p13
VMinneapolis, Minnesota, United States
p14
sS'Type'
p15
VMagic WPN Premium Tournament
p16
sS'ID'
p17
g2
sS'Format'
p18
VStandard
p19
sS'Matches'
p20
I10
sS'Deck'
p21
S''
sS'Date'
p22
V2014-10-25
p23
sS'Opponents'
p24
(lp25
(lp26
VHICKS, JACKSON
p27
aVWin
p28
aS''
aS''
aa(lp29
VLeaf, Hunter
p30
aVWin
p31
aS''
aS''
aa(lp32
VMcCarroll, John
p33
aVLoss
p34
aS''
aS''
aa(lp35
VLewis, Aaron
p36
aVLoss
p37
aS''
aS''
aa(lp38
VAilabouni, Joe
p39
aVWin
p40
aS''
aS''
aa(lp41
VHanson, Steven
p42
aVWin
p43
aS''
aS''
aa(lp44
VGrinsteinner, Mike
p45
aVWin
p46
aS''
aS''
aa(lp47
VBorizh, William
p48
aVWin
p49
aS''
aS''
aa(lp50
VHolloway, Storm
p51
aVWin
p52
aS''
aS''
aa(lp53
VKirkpatrick, Jayson
p54
aVWin
p55
aS''
aS''
aassV13-08-4253403
p56
(dp57
g4
I0
sg5
Nsg6
I6
sg7
S''
sg8
I3
sg9
V337
p58
sg11
V44
p59
sg13
VLas Vegas, Nevada, United States
p60
sg15
VMagic WPN Premium Tournament
p61
sg17
g56
sg18
VLegacy
p62
sg20
I9
sg21
S''
sg22
V2013-12-15
p63
sg24
(lp64
(lp65
VSmith, Danny
p66
aVWin
p67
aS''
aS''
aa(lp68
VScales, Zach
p69
aVLoss
p70
aS''
aS''
aa(lp71
VGauf, Alexander
p72
aVWin
p73
aS''
aS''
aa(lp74
VFrench, Keith
p75
aVWin
p76
aS''
aS''
aa(lp77
VWijaya, Vidianto
p78
aVWin
p79
aS''
aS''
aa(lp80
VFlores, Jeremy
p81
aVLoss
p82
aS''
aS''
aa(lp83
VMarshall, Chris
p84
aVLoss
p85
aS''
aS''
aa(lp86
VSharer, Branden
p87
aVWin
p88
aS''
aS''
aa(lp89
VMorris Lent, Christopher
p90
aVWin
p91
aS''
aS''
aassV14-04-4910100[11]
p92
(dp93
g4
I0
sg5
Nsg6
I1
sg7
S''
sg8
I1
sg9
V16
p94
sg11
V5
sg13
VColumbus, Ohio, United States
p95
sg15
S'Other'
p96
sg17
g92
sg18
VStandard
p97
sg20
I2
sg21
S''
sg22
V2014-06-12
p98
sg24
(lp99
(lp100
VMize, Logan
p101
aVWin
p102
aS''
aS''
aa(lp103
VRice, Jason
p104
aVLoss
p105
aS''
aS''
aassV11-10-2983076
p106
(dp107
g4
I0
sg5
Nsg6
I3
sg7
S''
sg8
I1
sg9
V36
p108
sg11
V6
sg13
VBloomington, Illinois, United States
p109
sg15
VFriday Night Magic
p110
sg17
g106
sg18
VStandard
p111
sg20
I4
sg21
S''
sg22
V2011-10-21
p112
sg24
(lp113
(lp114
VGendron, Brittany
p115
aVWin
p116
aS''
aS''
aa(lp117
VTIPPETT, JASON
p118
aVWin
p119
aS''
aS''
aa(lp120
VWHALEY, JEREMY
p121
aVWin
p122
aS''
aS''
aa(lp123
VPacholski, Andy
p124
aVLoss
p125
aS''
aS''
aassV11-10-2983074
p126
(dp127
g4
I0
sg5
Nsg6
I1
sg7
S''
sg8
I2
sg9
V22
p128
sg11
V16
p129
sg13
VBloomington, Illinois, United States
p130
sg15
VFriday Night Magic
p131
sg17
g126
sg18
VStandard
p132
sg20
I3
sg21
S''
sg22
V2011-10-28
p133
sg24
(lp134
(lp135
VKletz, Michael
p136
aVWin
p137
aS''
aS''
aa(lp138
VThoman, Eric S
p139
aVLoss
p140
aS''
aS''
aa(lp141
VSTEWART, JASON
p142
aVLoss
p143
aS''
aS''
aassV14-01-4715237
p144
(dp145
g4
I0
sg5
Nsg6
I3
sg7
S''
sg8
I1
sg9
V12
p146
sg11
V4
sg13
VBloomington, Illinois, United States
p147
sg15
VFriday Night Magic
p148
sg17
g144
sg18
VModern
p149
sg20
I4
sg21
S''
sg22
V2014-01-31
p150
sg24
(lp151
(lp152
VSchaefer, Josh
p153
aVWin
p154
aS''
aS''
aa(lp155
Vjones, brian
p156
aVLoss
p157
aS''
aS''
aa(lp158
VLurie, Benjamin
p159
aVWin
p160
aS''
aS''
aa(lp161
VHOLT, ZACK
p162
aVWin
p163
aS''
aS''
aassV12-02-3252495
p164
(dp165
g4
I0
sg5
Nsg6
I0
sg7
S''
sg8
I0
sg9
V20
p166
sg11
V4
sg13
VBloomington, Illinois, United States
p167
sg15
g96
sg17
g164
sg18
V2 HG Sealed
p168
sg20
I0
sg21
S''
sg22
V2012-02-04
p169
sg24
(lp170
ssV11-10-3071158
p171
(dp172
g4
I0
sg5
Nsg6
I0
sg7
S''
sg8
I2
sg9
V161
p173
sg11
V156
p174
sg13
VNiles, Illinois, United States
p175
sg15
g96
sg17
g171
sg18
VStandard
p176
sg20
I2
sg21
S''
sg22
V2011-10-15
p177
sg24
(lp178
(lp179
VGray, Sean
p180
aVLoss
p181
aS''
aS''
aa(lp182
VMerced, Davis
p183
aVLoss
p184
aS''
aS''
aassV14-09-5395982
p185
(dp186
g4
I0
sg5
Nsg6
I6
sg7
S''
sg8
I2
sg9
V135
p187
sg11
V9
sg13
VMinneapolis, Minnesota, United States
p188
sg15
VMagic WPN Premium Tournament
p189
sg17
g185
sg18
VModern
p190
sg20
I8
sg21
S''
sg22
V2014-10-26
p191
sg24
(lp192
(lp193
VBRUDVIG, KEVIN
p194
aVWin
p195
aS''
aS''
aa(lp196
VHart, Brian
p197
aVWin
p198
aS''
aS''
aa(lp199
VTenthof van Noorden, Joko
p200
aVWin
p201
aS''
aS''
aa(lp202
VOsthus, Noah
p203
aVLoss
p204
aS''
aS''
aa(lp205
VNorton, Matt
p206
aVLoss
p207
aS''
aS''
aa(lp208
VO'Gara, Emmet
p209
aVWin
p210
aS''
aS''
aa(lp211
VLaFrombois, Mike
p212
aVWin
p213
aS''
aS''
aa(lp214
VTickal, Matthew
p215
aVWin
p216
aS''
aS''
aassV13-10-4279629
p217
(dp218
g4
I0
sg5
Nsg6
I7
sg7
S''
sg8
I7
sg9
V331
p219
sg11
V65
p220
sg13
VIndianapolis, Indiana, United States
p221
sg15
VMagic WPN Premium Tournament
p222
sg17
g217
sg18
VStandard
p223
sg20
I14
sg21
S''
sg22
V2013-10-25
p224
sg24
(lp225
(lp226
VRenner, Chris
p227
aVWin
p228
aS''
aS''
aa(lp229
VMoore, Andy
p230
aVLoss
p231
aS''
aS''
aa(lp232
VDiliberto, Mario
p233
aVLoss
p234
aS''
aS''
aa(lp235
VRUCKER, DARREN
p236
aVLoss
p237
aS''
aS''
aa(lp238
VCalle, Christopher
p239
aVWin
p240
aS''
aS''
aa(lp241
VBRIKSZA, RUDY
p242
aVWin
p243
aS''
aS''
aa(lp244
VEstrin, Aaron
p245
aVWin
p246
aS''
aS''
aa(lp247
VGolliher, Jason
p248
aVWin
p249
aS''
aS''
aa(lp250
VWilkerson, Tyler
p251
aVLoss
p252
aS''
aS''
aa(lp253
VMayer, Kenny
p254
aVWin
p255
aS''
aS''
aa(lp256
VEdgerle, Nick
p257
aVLoss
p258
aS''
aS''
aa(lp259
Vramsey, nicholas
p260
aVWin
p261
aS''
aS''
aa(lp262
VRavitz, Joshua
p263
aVLoss
p264
aS''
aS''
aa(lp265
VShafer, William
p266
aVLoss
p267
aS''
aS''
aassV12-12-3926582
p268
(dp269
g4
I2
sg5
Nsg6
I6
sg7
S''
sg8
I0
sg9
V31
p270
sg11
V1
sg13
VJacksonville, Illinois, United States
p271
sg15
g96
sg17
g268
sg18
VLegacy
p272
sg20
I8
sg21
S''
sg22
V2012-12-29
p273
sg24
(lp274
(lp275
VHarding, Greg
p276
aVWin
p277
aS''
aS''
aa(lp278
VGrawe, Scott
p279
aVWin
p280
aS''
aS''
aa(lp281
Varnone, jack
p282
aVWin
p283
aS''
aS''
aa(lp284
VMARION, ANDREW
p285
aVDraw
p286
aS''
aS''
aa(lp287
VRiggin, Shawn
p288
aVDraw
p289
aS''
aS''
aa(lp290
VHollendonner, Ben
p291
aVWin
p292
aS''
aS''
aa(lp293
VKletz, Michael
p294
aVWin
p295
aS''
aS''
aa(lp296
Varnone, jack
p297
aVWin
p298
aS''
aS''
aassV13-11-3950436
p299
(dp300
g4
I0
sg5
Nsg6
I3
sg7
S''
sg8
I3
sg9
V1698
p301
sg11
V286
p302
sg13
VChantilly, Virginia, United States
p303
sg15
VMagic Grand Prix
p304
sg17
g299
sg18
VLegacy
p305
sg20
I6
sg21
S''
sg22
V2013-11-16
p306
sg24
(lp307
(lp308
VVidugiris, Gaudenis
p309
aVLoss
p310
aS''
aS''
aa(lp311
VCollins, Jason
p312
aVWin
p313
aS''
aS''
aa(lp314
VENGLISH, JESSE
p315
aVWin
p316
aS''
aS''
aa(lp317
VThoma, Branden
p318
aVLoss
p319
aS''
aS''
aa(lp320
VMacejka, Larry
p321
aVWin
p322
aS''
aS''
aa(lp323
VLong, Matthew
p324
aVLoss
p325
aS''
aS''
aassV12-08-3440616
p326
(dp327
g4
I0
sg5
Nsg6
I5
sg7
S''
sg8
I4
sg9
V351
p328
sg11
V83
p329
sg13
VDuluth, Georgia, United States
p330
sg15
VMagic WPN Premium Tournament
p331
sg17
g326
sg18
VLegacy
p332
sg20
I9
sg21
S''
sg22
V2012-09-23
p333
sg24
(lp334
(lp335
VJohns, Thomas
p336
aVWin
p337
aS''
aS''
aa(lp338
VBedsole, Hayden
p339
aVWin
p340
aS''
aS''
aa(lp341
VJohnson, Richard
p342
aVWin
p343
aS''
aS''
aa(lp344
VHess, James
p345
aVLoss
p346
aS''
aS''
aa(lp347
VTietze, Max
p348
aVLoss
p349
aS''
aS''
aa(lp350
VJackson, Steven
p351
aVWin
p352
aS''
aS''
aa(lp353
VHoneycutt, Doug
p354
aVLoss
p355
aS''
aS''
aa(lp356
VMckinney, Dale
p357
aVLoss
p358
aS''
aS''
aa(lp359
VNapier, Cody
p360
aVWin
p361
aS''
aS''
aassV13-04-3967676
p362
(dp363
g4
I1
sg5
Nsg6
I11
sg7
S''
sg8
I4
sg9
V339
p364
sg11
V8
sg13
VSomerset, New Jersey, United States
p365
sg15
VMagic WPN Premium Tournament
p366
sg17
g362
sg18
VStandard
p367
sg20
I16
sg21
S''
sg22
V2013-07-26
p368
sg24
(lp369
(lp370
VEnevoldsen, Thomas
p371
aVLoss
p372
aS''
aS''
aa(lp373
VFlores, Michael
p374
aVWin
p375
aS''
aS''
aa(lp376
VBoswell, Andrew
p377
aVWin
p378
aS''
aS''
aa(lp379
VAndersen, Chris
p380
aVWin
p381
aS''
aS''
aa(lp382
VSeder, Robert
p383
aVWin
p384
aS''
aS''
aa(lp385
VSkarren, Frank
p386
aVWin
p387
aS''
aS''
aa(lp388
VOliver, Carrie
p389
aVWin
p390
aS''
aS''
aa(lp391
VTragos, Peter
p392
aVWin
p393
aS''
aS''
aa(lp394
VProsak, Adam
p395
aVWin
p396
aS''
aS''
aa(lp397
VBrown, Max
p398
aVLoss
p399
aS''
aS''
aa(lp400
VBoettcher, Jared
p401
aVWin
p402
aS''
aS''
aa(lp403
VDemestrio, Joe
p404
aVWin
p405
aS''
aS''
aa(lp406
VTenjum, Andrew
p407
aVLoss
p408
aS''
aS''
aa(lp409
VNelson, Brad
p410
aVWin
p411
aS''
aS''
aa(lp412
VFlora, Dustin
p413
aVDraw
p414
aS''
aS''
aa(lp415
VShiels, Dave
p416
aVLoss
p417
aS''
aS''
aassV12-05-3288344
p418
(dp419
g4
I0
sg5
Nsg6
I6
sg7
S''
sg8
I2
sg9
V209
p420
sg11
V26
p421
sg13
VKansas City, Missouri, United States
p422
sg15
VMagic WPN Premium Tournament
p423
sg17
g418
sg18
VLegacy
p424
sg20
I8
sg21
S''
sg22
V2012-08-12
p425
sg24
(lp426
(lp427
VRasmussen, Jeff
p428
aVLoss
p429
aS''
aS''
aa(lp430
VBaugh, Jacob
p431
aVWin
p432
aS''
aS''
aa(lp433
VEdwardson, Tim
p434
aVWin
p435
aS''
aS''
aa(lp436
VHink, Stephan
p437
aVLoss
p438
aS''
aS''
aa(lp439
VMayo, Daniel
p440
aVWin
p441
aS''
aS''
aa(lp442
VDaly, Ryan
p443
aVWin
p444
aS''
aS''
aa(lp445
VHammes, James
p446
aVWin
p447
aS''
aS''
aa(lp448
VPenick, t's
p449
aVWin
p450
aS''
aS''
aassV12-05-3288343
p451
(dp452
g4
I1
sg5
Nsg6
I4
sg7
S''
sg8
I4
sg9
V396
p453
sg11
V137
p454
sg13
VKansas City, Missouri, United States
p455
sg15
VMagic WPN Premium Tournament
p456
sg17
g451
sg18
VStandard
p457
sg20
I9
sg21
S''
sg22
V2012-08-11
p458
sg24
(lp459
(lp460
VBurns, Ben
p461
aVWin
p462
aS''
aS''
aa(lp463
VBeal, Rodney
p464
aVLoss
p465
aS''
aS''
aa(lp466
VAbell, Kyle
p467
aVLoss
p468
aS''
aS''
aa(lp469
VDaly, Ryan
p470
aVWin
p471
aS''
aS''
aa(lp472
VKletz, Michael
p473
aVWin
p474
aS''
aS''
aa(lp475
VTripp, Ryan
p476
aVLoss
p477
aS''
aS''
aa(lp478
VHicks, Robert
p479
aVWin
p480
aS''
aS''
aa(lp481
VKatip, Scott
p482
aVLoss
p483
aS''
aS''
aa(lp484
VBoyd, Benton
p485
aVDraw
p486
aS''
aS''
aassV12-08-3440611
p487
(dp488
g4
I1
sg5
Nsg6
I8
sg7
S''
sg8
I7
sg9
V311
p489
sg11
V82
p490
sg13
VDuluth, Georgia, United States
p491
sg15
VMagic WPN Premium Tournament
p492
sg17
g487
sg18
VLegacy
p493
sg20
I16
sg21
S''
sg22
V2012-09-21
p494
sg24
(lp495
(lp496
VBecker, Eric
p497
aVWin
p498
aS''
aS''
aa(lp499
VWestnedge, Adam
p500
aVWin
p501
aS''
aS''
aa(lp502
VBraverman, Michael
p503
aVLoss
p504
aS''
aS''
aa(lp505
VLANGE, BRIAN
p506
aVWin
p507
aS''
aS''
aa(lp508
VProst, Andrejs
p509
aVLoss
p510
aS''
aS''
aa(lp511
VKerrigan, AJ
p512
aVWin
p513
aS''
aS''
aa(lp514
Vmanner, joey
p515
aVDraw
p516
aS''
aS''
aa(lp517
VAndersen, Chris
p518
aVWin
p519
aS''
aS''
aa(lp520
Va, a
p521
aVLoss
p522
aS''
aS''
aa(lp523
VMerriam, Ross
p524
aVLoss
p525
aS''
aS''
aa(lp526
VDuncan, Jeremy
p527
aVWin
p528
aS''
aS''
aa(lp529
VMize, Logan
p530
aVWin
p531
aS''
aS''
aa(lp532
VRodgers, Logan
p533
aVLoss
p534
aS''
aS''
aa(lp535
VRichtsmeier, Gene
p536
aVLoss
p537
aS''
aS''
aa(lp538
VCruse, William
p539
aVLoss
p540
aS''
aS''
aa(lp541
VGuthrie, Kendal
p542
aVWin
p543
aS''
aS''
aassV12-01-3146741
p544
(dp545
g4
I0
sg5
Nsg6
I3
sg7
S''
sg8
I1
sg9
V31
p546
sg11
V6
sg13
VBloomington, Illinois, United States
p547
sg15
VFriday Night Magic
p548
sg17
g544
sg18
VStandard
p549
sg20
I4
sg21
S''
sg22
V2012-01-20
p550
sg24
(lp551
(lp552
VBodenbach, Ken
p553
aVWin
p554
aS''
aS''
aa(lp555
VTomek, Mark
p556
aVLoss
p557
aS''
aS''
aa(lp558
VMILBY, LUKE
p559
aVWin
p560
aS''
aS''
aa(lp561
VNorton, Matt
p562
aVWin
p563
aS''
aS''
aassV12-08-3440640[30]
p564
(dp565
g4
I0
sg5
Nsg6
I3
sg7
S''
sg8
I0
sg9
V8
sg11
V1
sg13
VIndianapolis, Indiana, United States
p566
sg15
g96
sg17
g564
sg18
VBooster Draft
p567
sg20
I3
sg21
S''
sg22
V2012-10-20
p568
sg24
(lp569
(lp570
VDuvall, Chris
p571
aVWin
p572
aS''
aS''
aa(lp573
VHazlett, Rita
p574
aVWin
p575
aS''
aS''
aa(lp576
VArdary, Steven
p577
aVWin
p578
aS''
aS''
aassV12-01-3146743
p579
(dp580
g4
I0
sg5
Nsg6
I2
sg7
S''
sg8
I2
sg9
V25
p581
sg11
V12
p582
sg13
VBloomington, Illinois, United States
p583
sg15
VFriday Night Magic
p584
sg17
g579
sg18
VStandard
p585
sg20
I4
sg21
S''
sg22
V2012-01-27
p586
sg24
(lp587
(lp588
VThoman, Eric S
p589
aVLoss
p590
aS''
aS''
aa(lp591
VBodenbach, Ken
p592
aVWin
p593
aS''
aS''
aa(lp594
VSoltwedel, Steven
p595
aVWin
p596
aS''
aS''
aa(lp597
VAcre, Timothy
p598
aVLoss
p599
aS''
aS''
aassV13-08-4253246
p600
(dp601
g4
I0
sg5
Nsg6
I3
sg7
S''
sg8
I3
sg9
V452
p602
sg11
V241
p603
sg13
VSharonville, Ohio, United States
p604
sg15
VMagic WPN Premium Tournament
p605
sg17
g600
sg18
VStandard
p606
sg20
I6
sg21
S''
sg22
V2013-08-31
p607
sg24
(lp608
(lp609
VRice, Jason
p610
aVWin
p611
aS''
aS''
aa(lp612
VGarcia, Matthew
p613
aVLoss
p614
aS''
aS''
aa(lp615
VWeller, Kyle
p616
aVLoss
p617
aS''
aS''
aa(lp618
VVieth, Doug
p619
aVWin
p620
aS''
aS''
aa(lp621
VMeadows, James
p622
aVWin
p623
aS''
aS''
aa(lp624
VVanMeter, Chris
p625
aVLoss
p626
aS''
aS''
aassV13-08-4480874
p627
(dp628
g4
I2
sg5
Nsg6
I7
sg7
S''
sg8
I0
sg9
V36
p629
sg11
V1
sg13
VNiles, Illinois, United States
p630
sg15
g96
sg17
g627
sg18
VModern
p631
sg20
I9
sg21
S''
sg22
V2013-08-04
p632
sg24
(lp633
(lp634
VDuran, David
p635
aVWin
p636
aS''
aS''
aa(lp637
VBeckham, Dylan
p638
aVWin
p639
aS''
aS''
aa(lp640
VKamerow, Simon
p641
aVWin
p642
aS''
aS''
aa(lp643
VBoomer, Christopher
p644
aVWin
p645
aS''
aS''
aa(lp646
VSavio, Tony
p647
aVDraw
p648
aS''
aS''
aa(lp649
VMilutinovic, Charles
p650
aVDraw
p651
aS''
aS''
aa(lp652
VPeterson, Jeremy
p653
aVWin
p654
aS''
aS''
aa(lp655
VMollenkopf, Tyler
p656
aVWin
p657
aS''
aS''
aa(lp658
VSavio, Tony
p659
aVWin
p660
aS''
aS''
aassV12-08-3521187
p661
(dp662
g4
I0
sg5
Nsg6
I4
sg7
S''
sg8
I0
sg9
V34
p663
sg11
V2
sg13
VBloomington, Illinois, United States
p664
sg15
VFriday Night Magic
p665
sg17
g661
sg18
VStandard
p666
sg20
I4
sg21
S''
sg22
V2012-08-17
p667
sg24
(lp668
(lp669
VPeterson, Jeremy
p670
aVWin
p671
aS''
aS''
aa(lp672
VLien, Seth
p673
aVWin
p674
aS''
aS''
aa(lp675
VRUTLEDGE, WRYAN
p676
aVWin
p677
aS''
aS''
aa(lp678
VBodenbach, Ken
p679
aVWin
p680
aS''
aS''
aassV13-07-4429193
p681
(dp682
g4
I2
sg5
Nsg6
I8
sg7
S''
sg8
I0
sg9
V72
p683
sg11
V1
sg13
VCrestwood, Missouri, United States
p684
sg15
g96
sg17
g681
sg18
VStandard
p685
sg20
I10
sg21
S''
sg22
V2013-07-20
p686
sg24
(lp687
(lp688
VPINKSTON, SCOTT
p689
aVWin
p690
aS''
aS''
aa(lp691
VMoss, Rodger
p692
aVWin
p693
aS''
aS''
aa(lp694
VZanutto, Antonio
p695
aVWin
p696
aS''
aS''
aa(lp697
VMedley, Jacob
p698
aVWin
p699
aS''
aS''
aa(lp700
VSchnitker, Dylan
p701
aVWin
p702
aS''
aS''
aa(lp703
VHarlan, Thomas
p704
aVDraw
p705
aS''
aS''
aa(lp706
VKinkade, Eben
p707
aVDraw
p708
aS''
aS''
aa(lp709
VZanutto, Antonio
p710
aVWin
p711
aS''
aS''
aa(lp712
VHarlan, Thomas
p713
aVWin
p714
aS''
aS''
aa(lp715
VMedley, Jacob
p716
aVWin
p717
aS''
aS''
aassV14-11-5722935
p718
(dp719
g4
I0
sg5
Nsg6
I4
sg7
S''
sg8
I2
sg9
V34
p720
sg11
V10
p721
sg13
VMoline, Illinois, United States
p722
sg15
g96
sg17
g718
sg18
VStandard
p723
sg20
I6
sg21
S''
sg22
V2014-11-01
p724
sg24
(lp725
(lp726
VWhitcomb, Andrew
p727
aVLoss
p728
aS''
aS''
aa(lp729
Vmisner, mikel
p730
aVWin
p731
aS''
aS''
aa(lp732
VQuick, Ben
p733
aVWin
p734
aS''
aS''
aa(lp735
VHAMER, AUSTIN
p736
aVLoss
p737
aS''
aS''
aa(lp738
VManley, Jason
p739
aVWin
p740
aS''
aS''
aa(lp741
VStickrod, Jeff
p742
aVWin
p743
aS''
aS''
aassV13-10-4512172
p744
(dp745
g4
I0
sg5
Nsg6
I2
sg7
S''
sg8
I2
sg9
V40
p746
sg11
V19
p747
sg13
VCleveland, Ohio, United States
p748
sg15
g96
sg17
g744
sg18
VLegacy
p749
sg20
I4
sg21
S''
sg22
V2013-10-05
p750
sg24
(lp751
(lp752
VPecuch, Pj
p753
aVLoss
p754
aS''
aS''
aa(lp755
VRoberts, Travis
p756
aVWin
p757
aS''
aS''
aa(lp758
VCrawford, Graeme
p759
aVWin
p760
aS''
aS''
aa(lp761
VLi, Si-Ning
p762
aVLoss
p763
aS''
aS''
aassV14-08-5395816
p764
(dp765
g4
I0
sg5
Nsg6
I5
sg7
S''
sg8
I3
sg9
V189
p766
sg11
V32
p767
sg13
VSomerset, New Jersey, United States
p768
sg15
g96
sg17
g764
sg18
VModern
p769
sg20
I8
sg21
S''
sg22
V2014-08-31
p770
sg24
(lp771
(lp772
VArenstein, Max
p773
aVWin
p774
aS''
aS''
aa(lp775
VLansdaal, Jelle
p776
aVWin
p777
aS''
aS''
aa(lp778
VSCHUSTER, TIM
p779
aVWin
p780
aS''
aS''
aa(lp781
VRocco, Craig
p782
aVWin
p783
aS''
aS''
aa(lp784
Vsosa marrero, eduardo
p785
aVLoss
p786
aS''
aS''
aa(lp787
VSmith, Jason
p788
aVLoss
p789
aS''
aS''
aa(lp790
VCavalieri, Mani
p791
aVLoss
p792
aS''
aS''
aa(lp793
VLerner, Ivan
p794
aVWin
p795
aS''
aS''
aassV11-09-2946913
p796
(dp797
g4
I0
sg5
Nsg6
I1
sg7
S''
sg8
I2
sg9
V33
p798
sg11
V24
p799
sg13
VBloomington, Illinois, United States
p800
sg15
VFriday Night Magic
p801
sg17
g796
sg18
VStandard
p802
sg20
I3
sg21
S''
sg22
V2011-09-02
p803
sg24
(lp804
(lp805
VLien, Seth
p806
aVLoss
p807
aS''
aS''
aa(lp808
VELVIDGE, KRISTI
p809
aVWin
p810
aS''
aS''
aa(lp811
VGarrett, Anthony
p812
aVLoss
p813
aS''
aS''
aassV11-09-2946917
p814
(dp815
g4
I1
sg5
Nsg6
I1
sg7
S''
sg8
I2
sg9
V30
p816
sg11
V21
p817
sg13
VBloomington, Illinois, United States
p818
sg15
VFriday Night Magic
p819
sg17
g814
sg18
VStandard
p820
sg20
I4
sg21
S''
sg22
V2011-09-16
p821
sg24
(lp822
(lp823
VAcre, Timothy
p824
aVLoss
p825
aS''
aS''
aa(lp826
VCornelius, Erwin D
p827
aVWin
p828
aS''
aS''
aa(lp829
VPacholski, Andy
p830
aVDraw
p831
aS''
aS''
aa(lp832
VLEHMAN, AMY
p833
aVLoss
p834
aS''
aS''
aassV13-01-3853154
p835
(dp836
g4
I0
sg5
Nsg6
I2
sg7
S''
sg8
I1
sg9
V84
p837
sg11
V18
p838
sg13
VColumbus, Ohio, United States
p839
sg15
g96
sg17
g835
sg18
VLegacy
p840
sg20
I3
sg21
S''
sg22
V2013-01-05
p841
sg24
(lp842
(lp843
VSava, John
p844
aVLoss
p845
aS''
aS''
aa(lp846
VKletz, Michael
p847
aVWin
p848
aS''
aS''
aa(lp849
VSmith, Vincent
p850
aVWin
p851
aS''
aS''
aassV13-02-3898249
p852
(dp853
g4
I0
sg5
Nsg6
I2
sg7
S''
sg8
I1
sg9
V23
p854
sg11
V3
sg13
VBloomington, Illinois, United States
p855
sg15
VFriday Night Magic
p856
sg17
g852
sg18
VModern
p857
sg20
I3
sg21
S''
sg22
V2013-02-22
p858
sg24
(lp859
(lp860
VGorrie, Steve
p861
aVWin
p862
aS''
aS''
aa(lp863
VHutchins, Phillip
p864
aVWin
p865
aS''
aS''
aa(lp866
VROBERTS, ALEX
p867
aVLoss
p868
aS''
aS''
aassV12-05-3287105
p869
(dp870
g4
I0
sg5
Nsg6
I4
sg7
S''
sg8
I4
sg9
V325
p871
sg11
V152
p872
sg13
VMadison, Wisconsin, United States
p873
sg15
VMagic WPN Premium Tournament
p874
sg17
g869
sg18
VStandard
p875
sg20
I8
sg21
S''
sg22
V2012-05-12
p876
sg24
(lp877
(lp878
VFarlee, Sean
p879
aVLoss
p880
aS''
aS''
aa(lp881
VJACKSON, VARIAN
p882
aVLoss
p883
aS''
aS''
aa(lp884
VSolaris, Bo
p885
aVWin
p886
aS''
aS''
aa(lp887
VAbraham, Matthew
p888
aVWin
p889
aS''
aS''
aa(lp890
VEspiritu, Angel J
p891
aVWin
p892
aS''
aS''
aa(lp893
VKing, David
p894
aVWin
p895
aS''
aS''
aa(lp896
VAndrews, Joey
p897
aVLoss
p898
aS''
aS''
aa(lp899
VDoerfler, Matt
p900
aVLoss
p901
aS''
aS''
aassV12-05-3287106
p902
(dp903
g4
I0
sg5
Nsg6
I3
sg7
S''
sg8
I5
sg9
V186
p904
sg11
V103
p905
sg13
VMadison, Wisconsin, United States
p906
sg15
VMagic WPN Premium Tournament
p907
sg17
g902
sg18
VLegacy
p908
sg20
I8
sg21
S''
sg22
V2012-05-13
p909
sg24
(lp910
(lp911
VEsser, Corey J
p912
aVWin
p913
aS''
aS''
aa(lp914
VRobbins, Brian
p915
aVWin
p916
aS''
aS''
aa(lp917
VFrankowski, John
p918
aVLoss
p919
aS''
aS''
aa(lp920
VNedland, Anthony
p921
aVLoss
p922
aS''
aS''
aa(lp923
VMyers, Charles
p924
aVLoss
p925
aS''
aS''
aa(lp926
VTsukuno, David
p927
aVLoss
p928
aS''
aS''
aa(lp929
VStone, Michael
p930
aVWin
p931
aS''
aS''
aa(lp932
VHiser, Andrew
p933
aVLoss
p934
aS''
aS''
aassV13-06-4347851
p935
(dp936
g4
I0
sg5
Nsg6
I3
sg7
S''
sg8
I1
sg9
V9
sg11
V4
sg13
VBloomington, Illinois, United States
p937
sg15
g96
sg17
g935
sg18
VCasual - Constructed
p938
sg20
I4
sg21
S''
sg22
V2013-06-17
p939
sg24
(lp940
(lp941
VMORLEY, TJ
p942
aVWin
p943
aS''
aS''
aa(lp944
VWoerner, Nick
p945
aVLoss
p946
aS''
aS''
aa(lp947
VHutchins, Phillip
p948
aVWin
p949
aS''
aS''
aa(lp950
VKletz, Michael
p951
aVWin
p952
aS''
aS''
aassV13-03-3840245
p953
(dp954
g4
I0
sg5
Nsg6
I5
sg7
S''
sg8
I3
sg9
V187
p955
sg11
V43
p956
sg13
VLindenhurst, Illinois, United States
p957
sg15
VMagic Pro Tour Qualifier
p958
sg17
g953
sg18
VModern
p959
sg20
I8
sg21
S''
sg22
V2013-03-02
p960
sg24
(lp961
(lp962
Vmoscatel, matt
p963
aVWin
p964
aS''
aS''
aa(lp965
VHoey, Matthew
p966
aVLoss
p967
aS''
aS''
aa(lp968
VHeath, Benjamin
p969
aVWin
p970
aS''
aS''
aa(lp971
VJobin, Christopher
p972
aVLoss
p973
aS''
aS''
aa(lp974
VFriend, Korbin
p975
aVWin
p976
aS''
aS''
aa(lp977
VNewhausen, AJ
p978
aVWin
p979
aS''
aS''
aa(lp980
Vcatardi, joey
p981
aVLoss
p982
aS''
aS''
aa(lp983
VWILLIAMS, CHRISTOPHER
p984
aVWin
p985
aS''
aS''
aassV13-07-4382100
p986
(dp987
g4
I0
sg5
Nsg6
I2
sg7
S''
sg8
I2
sg9
V11
p988
sg11
V7
sg13
VBloomington, Illinois, United States
p989
sg15
g96
sg17
g986
sg18
VCasual - Constructed
p990
sg20
I4
sg21
S''
sg22
V2013-07-01
p991
sg24
(lp992
(lp993
VLenz, Jon
p994
aVWin
p995
aS''
aS''
aa(lp996
VMORLEY, TJ
p997
aVWin
p998
aS''
aS''
aa(lp999
VRasmussen, Jeff
p1000
aVLoss
p1001
aS''
aS''
aa(lp1002
VMARION, ANDREW
p1003
aVLoss
p1004
aS''
aS''
aassV13-03-3840246
p1005
(dp1006
g4
I0
sg5
Nsg6
I2
sg7
S''
sg8
I3
sg9
V221
p1007
sg11
V111
p1008
sg13
VNiles, Illinois, United States
p1009
sg15
VMagic Pro Tour Qualifier
p1010
sg17
g1005
sg18
VModern
p1011
sg20
I5
sg21
S''
sg22
V2013-03-16
p1012
sg24
(lp1013
(lp1014
VWatts, Zach
p1015
aVLoss
p1016
aS''
aS''
aa(lp1017
VHarris, Michael
p1018
aVWin
p1019
aS''
aS''
aa(lp1020
VWITTEN, ZACK
p1021
aVWin
p1022
aS''
aS''
aa(lp1023
VHamilton, Alexander
p1024
aVLoss
p1025
aS''
aS''
aa(lp1026
VJansen, Adam
p1027
aVLoss
p1028
aS''
aS''
aassV14-04-4910100[10]
p1029
(dp1030
g4
I0
sg5
Nsg6
I0
sg7
S''
sg8
I1
sg9
V16
p1031
sg11
V13
p1032
sg13
VColumbus, Ohio, United States
p1033
sg15
g96
sg17
g1029
sg18
VStandard
p1034
sg20
I1
sg21
S''
sg22
V2014-06-12
p1035
sg24
(lp1036
(lp1037
VRice, Jason
p1038
aVLoss
p1039
aS''
aS''
aassV14-05-4969089
p1040
(dp1041
g4
I0
sg5
Nsg6
I3
sg7
S''
sg8
I4
sg9
V588
p1042
sg11
V314
p1043
sg13
VIndianapolis, Indiana, United States
p1044
sg15
VMagic WPN Premium Tournament
p1045
sg17
g1040
sg18
VStandard
p1046
sg20
I7
sg21
S''
sg22
V2014-09-27
p1047
sg24
(lp1048
(lp1049
VWright, Jayson
p1050
aVLoss
p1051
aS''
aS''
aa(lp1052
VBimonte, Matt
p1053
aVWin
p1054
aS''
aS''
aa(lp1055
VCrowell, Bryan
p1056
aVWin
p1057
aS''
aS''
aa(lp1058
VMalesevic, Anthony
p1059
aVWin
p1060
aS''
aS''
aa(lp1061
VJackson, Adam
p1062
aVLoss
p1063
aS''
aS''
aa(lp1064
VHARWICK, SEAN
p1065
aVLoss
p1066
aS''
aS''
aa(lp1067
VBryant, James
p1068
aVLoss
p1069
aS''
aS''
aassV13-08-4253414
p1070
(dp1071
g4
I0
sg5
Nsg6
I2
sg7
S''
sg8
I4
sg9
V299
p1072
sg11
V126
p1073
sg13
VLas Vegas, Nevada, United States
p1074
sg15
VMagic WPN Premium Tournament
p1075
sg17
g1070
sg18
VStandard
p1076
sg20
I6
sg21
S''
sg22
V2013-12-13
p1077
sg24
(lp1078
(lp1079
VSoorani, Shaheen
p1080
aVLoss
p1081
aS''
aS''
aa(lp1082
VKory, Jacob
p1083
aVWin
p1084
aS''
aS''
aa(lp1085
VKalbus, Wes
p1086
aVLoss
p1087
aS''
aS''
aa(lp1088
VFreedman, Henry
p1089
aVLoss
p1090
aS''
aS''
aa(lp1091
VDoberne, David
p1092
aVWin
p1093
aS''
aS''
aa(lp1094
VNabi, Basil
p1095
aVLoss
p1096
aS''
aS''
aassV12-06-3387114
p1097
(dp1098
g4
I0
sg5
Nsg6
I3
sg7
S''
sg8
I1
sg9
V38
p1099
sg11
V3
sg13
VBloomington, Illinois, United States
p1100
sg15
VFriday Night Magic
p1101
sg17
g1097
sg18
VStandard
p1102
sg20
I4
sg21
S''
sg22
V2012-06-29
p1103
sg24
(lp1104
(lp1105
VRasmussen, Jeff
p1106
aVWin
p1107
aS''
aS''
aa(lp1108
VTIPPETT, JASON
p1109
aVLoss
p1110
aS''
aS''
aa(lp1111
VLamar, Loren
p1112
aVWin
p1113
aS''
aS''
aa(lp1114
VLOOK, JOHN
p1115
aVWin
p1116
aS''
aS''
aassV14-02-4931920
p1117
(dp1118
g4
I0
sg5
Nsg6
I3
sg7
S''
sg8
I0
sg9
V8
sg11
V1
sg13
VBloomington, Illinois, United States
p1119
sg15
g96
sg17
g1117
sg18
VCasual - Constructed
p1120
sg20
I3
sg21
S''
sg22
V2014-02-06
p1121
sg24
(lp1122
(lp1123
VLien, Seth
p1124
aVWin
p1125
aS''
aS''
aa(lp1126
VO'Hare, Sean
p1127
aVWin
p1128
aS''
aS''
aa(lp1129
VMARION, ANDREW
p1130
aVWin
p1131
aS''
aS''
aassV14-01-4897233
p1132
(dp1133
g4
I0
sg5
Nsg6
I2
sg7
S''
sg8
I2
sg9
V16
p1134
sg11
V7
sg13
VBloomington, Illinois, United States
p1135
sg15
g96
sg17
g1132
sg18
VCasual - Constructed
p1136
sg20
I4
sg21
S''
sg22
V2014-01-16
p1137
sg24
(lp1138
(lp1139
VNardone, Chris
p1140
aVWin
p1141
aS''
aS''
aa(lp1142
VMARION, ANDREW
p1143
aVLoss
p1144
aS''
aS''
aa(lp1145
VPeterson, Jeremy
p1146
aVWin
p1147
aS''
aS''
aa(lp1148
VGregory, Christopher
p1149
aVLoss
p1150
aS''
aS''
aassV12-03-3175019
p1151
(dp1152
g4
I0
sg5
Nsg6
I0
sg7
S''
sg8
I2
sg9
V165
p1153
sg11
V110
p1154
sg13
VNiles, Illinois, United States
p1155
sg15
VMagic Pro Tour Qualifier
p1156
sg17
g1151
sg18
VModern
p1157
sg20
I2
sg21
S''
sg22
V2012-03-31
p1158
sg24
(lp1159
(lp1160
VKlein, Andrew
p1161
aVLoss
p1162
aS''
aS''
aa(lp1163
VCote, Lee
p1164
aVLoss
p1165
aS''
aS''
aassV12-07-3361223
p1166
(dp1167
g4
I0
sg5
Nsg6
I0
sg7
S''
sg8
I3
sg9
V1046
p1168
sg11
V790
p1169
sg13
VColumbus, Ohio, United States
p1170
sg15
VMagic Grand Prix
p1171
sg17
g1166
sg18
VModern
p1172
sg20
I3
sg21
S''
sg22
V2012-07-21
p1173
sg24
(lp1174
(lp1175
VHara, Stephen
p1176
aVLoss
p1177
aS''
aS''
aa(lp1178
VArguelles, Robert
p1179
aVLoss
p1180
aS''
aS''
aa(lp1181
VBurger, Cameron
p1182
aVLoss
p1183
aS''
aS''
aassV14-08-5329779
p1184
(dp1185
g4
I1
sg5
Nsg6
I3
sg7
S''
sg8
I2
sg9
V28
p1186
sg11
V7
sg13
VMoline, Illinois, United States
p1187
sg15
g96
sg17
g1184
sg18
VStandard
p1188
sg20
I6
sg21
S''
sg22
V2014-08-02
p1189
sg24
(lp1190
(lp1191
VLim, Danny
p1192
aVWin
p1193
aS''
aS''
aa(lp1194
VShaffer, Dustin
p1195
aVWin
p1196
aS''
aS''
aa(lp1197
VStevenson, Tim
p1198
aVLoss
p1199
aS''
aS''
aa(lp1200
VHelvick, Cory
p1201
aVWin
p1202
aS''
aS''
aa(lp1203
VOwens, Chad
p1204
aVDraw
p1205
aS''
aS''
aa(lp1206
VStevenson, Tim
p1207
aVLoss
p1208
aS''
aS''
aassV11-08-2894495
p1209
(dp1210
g4
I0
sg5
Nsg6
I3
sg7
S''
sg8
I1
sg9
V30
p1211
sg11
V5
sg13
VBloomington, Illinois, United States
p1212
sg15
VFriday Night Magic
p1213
sg17
g1209
sg18
VStandard
p1214
sg20
I4
sg21
S''
sg22
V2011-08-26
p1215
sg24
(lp1216
(lp1217
VBodenbach, Ken
p1218
aVLoss
p1219
aS''
aS''
aa(lp1220
VKletz, Michael
p1221
aVWin
p1222
aS''
aS''
aa(lp1223
VSchaefer, Josh D
p1224
aVWin
p1225
aS''
aS''
aa(lp1226
VGREEN, CARSON
p1227
aVWin
p1228
aS''
aS''
aassV14-07-5427189
p1229
(dp1230
g4
I2
sg5
Nsg6
I7
sg7
S''
sg8
I0
sg9
V75
p1231
sg11
V1
sg13
VIndianapolis, Indiana, United States
p1232
sg15
g96
sg17
g1229
sg18
VStandard
p1233
sg20
I9
sg21
S''
sg22
V2014-10-11
p1234
sg24
(lp1235
(lp1236
VFeiock, Vesna
p1237
aVWin
p1238
aS''
aS''
aa(lp1239
VGrube, Dave
p1240
aVWin
p1241
aS''
aS''
aa(lp1242
VAdams, Jason
p1243
aVWin
p1244
aS''
aS''
aa(lp1245
VTidd, David
p1246
aVWin
p1247
aS''
aS''
aa(lp1248
VMartin, Clyde
p1249
aVWin
p1250
aS''
aS''
aa(lp1251
Vhounshell, dillon
p1252
aVDraw
p1253
aS''
aS''
aa(lp1254
VShortino, Justin
p1255
aVDraw
p1256
aS''
aS''
aa(lp1257
VShortino, Justin
p1258
aVWin
p1259
aS''
aS''
aa(lp1260
VCOMBS, RICK
p1261
aVWin
p1262
aS''
aS''
aassV12-08-3440627
p1263
(dp1264
g4
I0
sg5
Nsg6
I5
sg7
S''
sg8
I4
sg9
V408
p1265
sg11
V117
p1266
sg13
VSharonville, Ohio, United States
p1267
sg15
VMagic WPN Premium Tournament
p1268
sg17
g1263
sg18
VStandard
p1269
sg20
I9
sg21
S''
sg22
V2012-10-06
p1270
sg24
(lp1271
(lp1272
VFOGLE, JACK
p1273
aVLoss
p1274
aS''
aS''
aa(lp1275
VBaugh, Jacob
p1276
aVWin
p1277
aS''
aS''
aa(lp1278
VWinn, Tyler
p1279
aVLoss
p1280
aS''
aS''
aa(lp1281
VJackson, Jacob
p1282
aVWin
p1283
aS''
aS''
aa(lp1284
VCottrill, Brad
p1285
aVWin
p1286
aS''
aS''
aa(lp1287
VMcGraw, Nathan
p1288
aVWin
p1289
aS''
aS''
aa(lp1290
VMorrow, Andrew
p1291
aVLoss
p1292
aS''
aS''
aa(lp1293
VOrloff, Jesse
p1294
aVWin
p1295
aS''
aS''
aa(lp1296
VPitstick, David
p1297
aVLoss
p1298
aS''
aS''
aassV11-07-2869094
p1299
(dp1300
g4
I0
sg5
Nsg6
I0
sg7
S''
sg8
I4
sg9
V27
p1301
sg11
V27
p1302
sg13
VOak Lawn, Illinois, United States
p1303
sg15
VFriday Night Magic
p1304
sg17
g1299
sg18
VStandard
p1305
sg20
I4
sg21
S''
sg22
V2011-07-08
p1306
sg24
(lp1307
(lp1308
VUllo, Brad P
p1309
aVLoss
p1310
aS''
aS''
aa(lp1311
VMORENO, ERIK
p1312
aVLoss
p1313
aS''
aS''
aa(lp1314
VMatteson, Ryan
p1315
aVLoss
p1316
aS''
aS''
aa(lp1317
VMena, Chris
p1318
aVLoss
p1319
aS''
aS''
aassV13-08-4253252
p1320
(dp1321
g4
I0
sg5
Nsg6
I7
sg7
S''
sg8
I2
sg9
V277
p1322
sg11
V11
p1323
sg13
VSharonville, Ohio, United States
p1324
sg15
VMagic WPN Premium Tournament
p1325
sg17
g1320
sg18
VLegacy
p1326
sg20
I9
sg21
S''
sg22
V2013-09-01
p1327
sg24
(lp1328
(lp1329
VWienburg, Ben
p1330
aVWin
p1331
aS''
aS''
aa(lp1332
VLancaster, Ian
p1333
aVWin
p1334
aS''
aS''
aa(lp1335
VNewman, James
p1336
aVWin
p1337
aS''
aS''
aa(lp1338
VMullins, Matthew
p1339
aVWin
p1340
aS''
aS''
aa(lp1341
Vmerced, davis
p1342
aVWin
p1343
aS''
aS''
aa(lp1344
VHoey, Matthew
p1345
aVLoss
p1346
aS''
aS''
aa(lp1347
VBecvar, Nick
p1348
aVWin
p1349
aS''
aS''
aa(lp1350
VTompkins, Andy
p1351
aVWin
p1352
aS''
aS''
aa(lp1353
VWaskelo, Alex
p1354
aVLoss
p1355
aS''
aS''
aassV12-01-3104789
p1356
(dp1357
g4
I0
sg5
Nsg6
I5
sg7
S''
sg8
I4
sg9
V636
p1358
sg11
V173
p1359
sg13
VSharonville, Ohio, United States
p1360
sg15
VMagic WPN Premium Tournament
p1361
sg17
g1356
sg18
VStandard
p1362
sg20
I9
sg21
S''
sg22
V2012-02-11
p1363
sg24
(lp1364
(lp1365
VOSBOURN, JEREMY
p1366
aVLoss
p1367
aS''
aS''
aa(lp1368
VAguilas, Angel
p1369
aVWin
p1370
aS''
aS''
aa(lp1371
VWolfe, James
p1372
aVLoss
p1373
aS''
aS''
aa(lp1374
VSloan, Chuck
p1375
aVWin
p1376
aS''
aS''
aa(lp1377
VKING, RYAN
p1378
aVWin
p1379
aS''
aS''
aa(lp1380
VMcKenzie, Chadwick B
p1381
aVWin
p1382
aS''
aS''
aa(lp1383
VMichalares, Neil
p1384
aVLoss
p1385
aS''
aS''
aa(lp1386
VKuhar, Ben
p1387
aVWin
p1388
aS''
aS''
aa(lp1389
VCrider, Ken
p1390
aVLoss
p1391
aS''
aS''
aassV13-06-4168202
p1392
(dp1393
g4
I0
sg5
Nsg6
I4
sg7
S''
sg8
I0
sg9
V10
p1394
sg11
V1
sg13
VBloomington, Illinois, United States
p1395
sg15
VFriday Night Magic
p1396
sg17
g1392
sg18
VModern
p1397
sg20
I4
sg21
S''
sg22
V2013-06-28
p1398
sg24
(lp1399
(lp1400
VRasmussen, Jeff
p1401
aVWin
p1402
aS''
aS''
aa(lp1403
VYONKE, TYLER
p1404
aVWin
p1405
aS''
aS''
aa(lp1406
VKletz, Michael
p1407
aVWin
p1408
aS''
aS''
aa(lp1409
VGordon, Grant
p1410
aVWin
p1411
aS''
aS''
aassV12-08-3440629
p1412
(dp1413
g4
I0
sg5
Nsg6
I3
sg7
S''
sg8
I4
sg9
V205
p1414
sg11
V109
p1415
sg13
VSharonville, Ohio, United States
p1416
sg15
VMagic WPN Premium Tournament
p1417
sg17
g1412
sg18
VLegacy
p1418
sg20
I7
sg21
S''
sg22
V2012-10-07
p1419
sg24
(lp1420
(lp1421
VEngland, Joffrey
p1422
aVWin
p1423
aS''
aS''
aa(lp1424
VRuggiero, Scott
p1425
aVLoss
p1426
aS''
aS''
aa(lp1427
VTanner, Gene
p1428
aVLoss
p1429
aS''
aS''
aa(lp1430
VLoos, Chris
p1431
aVWin
p1432
aS''
aS''
aa(lp1433
VBullington, Jay
p1434
aVLoss
p1435
aS''
aS''
aa(lp1436
VFerreber, Spencer
p1437
aVWin
p1438
aS''
aS''
aa(lp1439
VWaldron, Joseph
p1440
aVLoss
p1441
aS''
aS''
aassV12-08-3440614[18]
p1442
(dp1443
g4
I0
sg5
Nsg6
I1
sg7
S''
sg8
I1
sg9
V8
sg11
V3
sg13
VDuluth, Georgia, United States
p1444
sg15
g96
sg17
g1442
sg18
VLegacy
p1445
sg20
I2
sg21
S''
sg22
V2012-09-22
p1446
sg24
(lp1447
(lp1448
VWilson, Anthony
p1449
aVWin
p1450
aS''
aS''
aa(lp1451
VShockley, Ron
p1452
aVLoss
p1453
aS''
aS''
aassV13-09-4563437
p1454
(dp1455
g4
I1
sg5
Nsg6
I1
sg7
S''
sg8
I2
sg9
V30
p1456
sg11
V19
p1457
sg13
VBloomington, Illinois, United States
p1458
sg15
g96
sg17
g1454
sg18
VLegacy
p1459
sg20
I4
sg21
S''
sg22
V2013-09-07
p1460
sg24
(lp1461
(lp1462
VKletz, Michael
p1463
aVDraw
p1464
aS''
aS''
aa(lp1465
VPOLLITT, TERRY
p1466
aVWin
p1467
aS''
aS''
aa(lp1468
VWright, William
p1469
aVLoss
p1470
aS''
aS''
aa(lp1471
VUttaro, Welkin
p1472
aVLoss
p1473
aS''
aS''
aassV12-04-3337620
p1474
(dp1475
g4
I2
sg5
Nsg6
I2
sg7
S''
sg8
I1
sg9
V16
p1476
sg11
V5
sg13
VBloomington, Illinois, United States
p1477
sg15
VMagic Grand Prix Trial
p1478
sg17
g1474
sg18
VStandard
p1479
sg20
I5
sg21
S''
sg22
V2012-04-14
p1480
sg24
(lp1481
(lp1482
VSanders, Harrison
p1483
aVWin
p1484
aS''
aS''
aa(lp1485
VMeroz, Zachary
p1486
aVWin
p1487
aS''
aS''
aa(lp1488
VBodenbach, Ken
p1489
aVDraw
p1490
aS''
aS''
aa(lp1491
VMARION, ANDREW S
p1492
aVDraw
p1493
aS''
aS''
aa(lp1494
VHOLT, ZACK
p1495
aVLoss
p1496
aS''
aS''
aassV12-05-3337612
p1497
(dp1498
g4
I1
sg5
Nsg6
I3
sg7
S''
sg8
I0
sg9
V23
p1499
sg11
V2
sg13
VBloomington, Illinois, United States
p1500
sg15
VFriday Night Magic
p1501
sg17
g1497
sg18
VStandard
p1502
sg20
I4
sg21
S''
sg22
V2012-05-04
p1503
sg24
(lp1504
(lp1505
VLamb, Matt
p1506
aVWin
p1507
aS''
aS''
aa(lp1508
VSCOTT, TREVOR
p1509
aVWin
p1510
aS''
aS''
aa(lp1511
VGorrie, Steve
p1512
aVDraw
p1513
aS''
aS''
aa(lp1514
VKletz, Michael
p1515
aVWin
p1516
aS''
aS''
aassV12-04-3298307
p1517
(dp1518
g4
I0
sg5
Nsg6
I3
sg7
S''
sg8
I1
sg9
V35
p1519
sg11
V9
sg13
VBloomington, Illinois, United States
p1520
sg15
VFriday Night Magic
p1521
sg17
g1517
sg18
VStandard
p1522
sg20
I4
sg21
S''
sg22
V2012-04-20
p1523
sg24
(lp1524
(lp1525
VTomek, Mark
p1526
aVLoss
p1527
aS''
aS''
aa(lp1528
Vhagerman, benjamin
p1529
aVWin
p1530
aS''
aS''
aa(lp1531
VKletz, Michael
p1532
aVWin
p1533
aS''
aS''
aa(lp1534
VLamar, Loren
p1535
aVWin
p1536
aS''
aS''
aassV12-05-3337615
p1537
(dp1538
g4
I0
sg5
Nsg6
I1
sg7
S''
sg8
I2
sg9
V21
p1539
sg11
V15
p1540
sg13
VBloomington, Illinois, United States
p1541
sg15
VFriday Night Magic
p1542
sg17
g1537
sg18
VStandard
p1543
sg20
I3
sg21
S''
sg22
V2012-05-18
p1544
sg24
(lp1545
(lp1546
VSTRATTON, JERED
p1547
aVWin
p1548
aS''
aS''
aa(lp1549
VPeterson, Jeremy
p1550
aVLoss
p1551
aS''
aS''
aa(lp1552
VRasmussen, Jeff
p1553
aVLoss
p1554
aS''
aS''
aassV12-12-3911413
p1555
(dp1556
g4
I0
sg5
Nsg6
I4
sg7
S''
sg8
I2
sg9
V38
p1557
sg11
V12
p1558
sg13
VIndianapolis, Indiana, United States
p1559
sg15
g96
sg17
g1555
sg18
VLegacy
p1560
sg20
I6
sg21
S''
sg22
V2012-12-23
p1561
sg24
(lp1562
(lp1563
VLEWIS, STEPHEN
p1564
aVLoss
p1565
aS''
aS''
aa(lp1566
VLevy, Adam
p1567
aVWin
p1568
aS''
aS''
aa(lp1569
VWalsh, Daniel
p1570
aVLoss
p1571
aS''
aS''
aa(lp1572
VBlack, Seth
p1573
aVWin
p1574
aS''
aS''
aa(lp1575
VHill, Michael
p1576
aVWin
p1577
aS''
aS''
aa(lp1578
VAlcorn, Bryan
p1579
aVWin
p1580
aS''
aS''
aassV12-02-3191291
p1581
(dp1582
g4
I0
sg5
Nsg6
I0
sg7
S''
sg8
I2
sg9
V12
p1583
sg11
V11
p1584
sg13
VBloomington, Illinois, United States
p1585
sg15
VMagic Grand Prix Trial
p1586
sg17
g1581
sg18
VModern
p1587
sg20
I2
sg21
S''
sg22
V2012-02-18
p1588
sg24
(lp1589
(lp1590
VTIPPETT, JASON
p1591
aVLoss
p1592
aS''
aS''
aa(lp1593
VPeterson, Jeremy
p1594
aVLoss
p1595
aS''
aS''
aassV14-03-5054602
p1596
(dp1597
g4
I0
sg5
Nsg6
I3
sg7
S''
sg8
I1
sg9
V79
p1598
sg11
V11
p1599
sg13
VCharlotte, North Carolina, United States
p1600
sg15
g96
sg17
g1596
sg18
VLegacy
p1601
sg20
I4
sg21
S''
sg22
V2014-03-29
p1602
sg24
(lp1603
(lp1604
VAlbergo, Patrick
p1605
aVWin
p1606
aS''
aS''
aa(lp1607
VKrupski, Jared
p1608
aVWin
p1609
aS''
aS''
aa(lp1610
VTopman, Andrew
p1611
aVLoss
p1612
aS''
aS''
aa(lp1613
VCharland, Nicholas
p1614
aVWin
p1615
aS''
aS''
aassV12-04-3298308
p1616
(dp1617
g4
I1
sg5
Nsg6
I2
sg7
S''
sg8
I1
sg9
V30
p1618
sg11
V10
p1619
sg13
VBloomington, Illinois, United States
p1620
sg15
VFriday Night Magic
p1621
sg17
g1616
sg18
VStandard
p1622
sg20
I4
sg21
S''
sg22
V2012-04-27
p1623
sg24
(lp1624
(lp1625
VHOLT, ZACK
p1626
aVWin
p1627
aS''
aS''
aa(lp1628
VBodenbach, Ken
p1629
aVLoss
p1630
aS''
aS''
aa(lp1631
VThoman, Eric S
p1632
aVDraw
p1633
aS''
aS''
aa(lp1634
VKletz, Michael
p1635
aVWin
p1636
aS''
aS''
aassV12-07-3460136
p1637
(dp1638
g4
I0
sg5
Nsg6
I0
sg7
S''
sg8
I2
sg9
V21
p1639
sg11
V21
p1640
sg13
VBloomington, Illinois, United States
p1641
sg15
VFriday Night Magic
p1642
sg17
g1637
sg18
VStandard
p1643
sg20
I2
sg21
S''
sg22
V2012-07-06
p1644
sg24
(lp1645
(lp1646
VMILBY, LUKE
p1647
aVLoss
p1648
aS''
aS''
aa(lp1649
VHOLT, ZACK
p1650
aVLoss
p1651
aS''
aS''
aassV14-04-4910100[13]
p1652
(dp1653
g4
I0
sg5
Nsg6
I0
sg7
S''
sg8
I1
sg9
V16
p1654
sg11
V12
p1655
sg13
VColumbus, Ohio, United States
p1656
sg15
g96
sg17
g1652
sg18
VStandard
p1657
sg20
I1
sg21
S''
sg22
V2014-06-12
p1658
sg24
(lp1659
(lp1660
VMize, Logan
p1661
aVLoss
p1662
aS''
aS''
aassV14-10-5670830
p1663
(dp1664
g4
I3
sg5
Nsg6
I4
sg7
S''
sg8
I0
sg9
V23
p1665
sg11
V1
sg13
VPeoria, Illinois, United States
p1666
sg15
g96
sg17
g1663
sg18
VStandard
p1667
sg20
I7
sg21
S''
sg22
V2014-10-18
p1668
sg24
(lp1669
(lp1670
VBrackett, Brian
p1671
aVWin
p1672
aS''
aS''
aa(lp1673
VTABLER, DAVID
p1674
aVWin
p1675
aS''
aS''
aa(lp1676
VWESTMAN, NOAH
p1677
aVWin
p1678
aS''
aS''
aa(lp1679
VClark, Steffen
p1680
aVDraw
p1681
aS''
aS''
aa(lp1682
VRipper, Matt
p1683
aVWin
p1684
aS''
aS''
aa(lp1685
VClark, Steffen
p1686
aVDraw
p1687
aS''
aS''
aa(lp1688
VClark, Steffen
p1689
aVDraw
p1690
aS''
aS''
aassV13-02-3840263
p1691
(dp1692
g4
I0
sg5
Nsg6
I5
sg7
S''
sg8
I2
sg9
V91
p1693
sg11
V13
p1694
sg13
VSt Charles, Missouri, United States
p1695
sg15
VMagic Pro Tour Qualifier
p1696
sg17
g1691
sg18
VModern
p1697
sg20
I7
sg21
S''
sg22
V2013-02-23
p1698
sg24
(lp1699
(lp1700
Vmurray, Leslie
p1701
aVWin
p1702
aS''
aS''
aa(lp1703
VCOTTER, ANDREW
p1704
aVWin
p1705
aS''
aS''
aa(lp1706
VFriend, Isaac
p1707
aVLoss
p1708
aS''
aS''
aa(lp1709
VAlbano, Peter
p1710
aVLoss
p1711
aS''
aS''
aa(lp1712
VBench, Austin
p1713
aVWin
p1714
aS''
aS''
aa(lp1715
VBaugh, Jacob
p1716
aVWin
p1717
aS''
aS''
aa(lp1718
VBrickhaus, Sterling
p1719
aVWin
p1720
aS''
aS''
aassV14-01-4679287
p1721
(dp1722
g4
I0
sg5
Nsg6
I6
sg7
S''
sg8
I3
sg9
V390
p1723
sg11
V60
p1724
sg13
VCollinsville, Illinois, United States
p1725
sg15
VMagic WPN Premium Tournament
p1726
sg17
g1721
sg18
VLegacy
p1727
sg20
I9
sg21
S''
sg22
V2014-02-23
p1728
sg24
(lp1729
(lp1730
VKILLY, KEVIN
p1731
aVWin
p1732
aS''
aS''
aa(lp1733
Vbradley, dale
p1734
aVWin
p1735
aS''
aS''
aa(lp1736
VLore, Nick
p1737
aVWin
p1738
aS''
aS''
aa(lp1739
VPhillips, Michael
p1740
aVLoss
p1741
aS''
aS''
aa(lp1742
VMoore, Andy
p1743
aVWin
p1744
aS''
aS''
aa(lp1745
VCOLLINS, STEVEN
p1746
aVLoss
p1747
aS''
aS''
aa(lp1748
VMartin, Spencer
p1749
aVLoss
p1750
aS''
aS''
aa(lp1751
VDeVooght, Jeremey
p1752
aVWin
p1753
aS''
aS''
aa(lp1754
VWebel, Daniel
p1755
aVWin
p1756
aS''
aS''
aassV14-01-4679286
p1757
(dp1758
g4
I0
sg5
Nsg6
I8
sg7
S''
sg8
I3
sg9
V762
p1759
sg11
V60
p1760
sg13
VCollinsville, Illinois, United States
p1761
sg15
VMagic WPN Premium Tournament
p1762
sg17
g1757
sg18
VStandard
p1763
sg20
I11
sg21
S''
sg22
V2014-02-22
p1764
sg24
(lp1765
(lp1766
VSporeleder, Erik
p1767
aVWin
p1768
aS''
aS''
aa(lp1769
VBarnes, Josh
p1770
aVLoss
p1771
aS''
aS''
aa(lp1772
VThomas, Phillip
p1773
aVWin
p1774
aS''
aS''
aa(lp1775
VLee, Brandon
p1776
aVWin
p1777
aS''
aS''
aa(lp1778
VBarnello, Adrian
p1779
aVWin
p1780
aS''
aS''
aa(lp1781
VCOLLINS, STEVEN
p1782
aVLoss
p1783
aS''
aS''
aa(lp1784
VBanks, Jeremy
p1785
aVLoss
p1786
aS''
aS''
aa(lp1787
VSCHOENBERG, SAMUEL
p1788
aVWin
p1789
aS''
aS''
aa(lp1790
VARNOLD, NICK
p1791
aVWin
p1792
aS''
aS''
aa(lp1793
VAnetsberger, Ryan
p1794
aVWin
p1795
aS''
aS''
aa(lp1796
VVosmik, Christopher
p1797
aVWin
p1798
aS''
aS''
aassV14-05-4969029
p1799
(dp1800
g4
I1
sg5
Nsg6
I7
sg7
S''
sg8
I2
sg9
V525
p1801
sg11
V28
p1802
sg13
VKansas City, Missouri, United States
p1803
sg15
VMagic WPN Premium Tournament
p1804
sg17
g1799
sg18
VStandard
p1805
sg20
I10
sg21
S''
sg22
V2014-07-26
p1806
sg24
(lp1807
(lp1808
VDeylius, Matt
p1809
aVWin
p1810
aS''
aS''
aa(lp1811
VSmith, Christopher
p1812
aVWin
p1813
aS''
aS''
aa(lp1814
VMead, Michael
p1815
aVWin
p1816
aS''
aS''
aa(lp1817
VKeenher, Matt
p1818
aVWin
p1819
aS''
aS''
aa(lp1820
VMorton, Scott
p1821
aVWin
p1822
aS''
aS''
aa(lp1823
VDavis, Aaron
p1824
aVWin
p1825
aS''
aS''
aa(lp1826
VErker, Will
p1827
aVLoss
p1828
aS''
aS''
aa(lp1829
VSmith, Barry
p1830
aVLoss
p1831
aS''
aS''
aa(lp1832
VParrish, Jamie
p1833
aVWin
p1834
aS''
aS''
aa(lp1835
VCampbell, Shane
p1836
aVDraw
p1837
aS''
aS''
aassV12-06-3387108
p1838
(dp1839
g4
I0
sg5
Nsg6
I2
sg7
S''
sg8
I2
sg9
V27
p1840
sg11
V15
p1841
sg13
VBloomington, Illinois, United States
p1842
sg15
VFriday Night Magic
p1843
sg17
g1838
sg18
VStandard
p1844
sg20
I4
sg21
S''
sg22
V2012-06-08
p1845
sg24
(lp1846
(lp1847
VSchaefer, Josh
p1848
aVLoss
p1849
aS''
aS''
aa(lp1850
VDelaney, Brandan
p1851
aVLoss
p1852
aS''
aS''
aa(lp1853
VHarris, Michael
p1854
aVWin
p1855
aS''
aS''
aa(lp1856
VOGLESBY, MCLEAN
p1857
aVWin
p1858
aS''
aS''
aassV14-05-5202322
p1859
(dp1860
g4
I1
sg5
Nsg6
I5
sg7
S''
sg8
I2
sg9
V80
p1861
sg11
V7
sg13
VBloomington, Illinois, United States
p1862
sg15
g96
sg17
g1859
sg18
VStandard
p1863
sg20
I8
sg21
S''
sg22
V2014-05-17
p1864
sg24
(lp1865
(lp1866
VAlongi, Adam
p1867
aVWin
p1868
aS''
aS''
aa(lp1869
VSledz, Richie
p1870
aVWin
p1871
aS''
aS''
aa(lp1872
VPASSARELLI, HAYDEN
p1873
aVLoss
p1874
aS''
aS''
aa(lp1875
VHughes, Dakotah
p1876
aVWin
p1877
aS''
aS''
aa(lp1878
VZagardo, David
p1879
aVWin
p1880
aS''
aS''
aa(lp1881
VFORBES, ANDREW
p1882
aVWin
p1883
aS''
aS''
aa(lp1884
VBurton, Brandon
p1885
aVDraw
p1886
aS''
aS''
aa(lp1887
VStolbom, Zach
p1888
aVLoss
p1889
aS''
aS''
aassV13-08-4253304
p1890
(dp1891
g4
I1
sg5
Nsg6
I6
sg7
S''
sg8
I2
sg9
V250
p1892
sg11
V19
p1893
sg13
VMilwaukee, Wisconsin, United States
p1894
sg15
VMagic WPN Premium Tournament
p1895
sg17
g1890
sg18
VLegacy
p1896
sg20
I9
sg21
S''
sg22
V2013-10-13
p1897
sg24
(lp1898
(lp1899
VIvey, Greg
p1900
aVWin
p1901
aS''
aS''
aa(lp1902
VMacak, Brian
p1903
aVWin
p1904
aS''
aS''
aa(lp1905
VROBERTS, ALEX
p1906
aVWin
p1907
aS''
aS''
aa(lp1908
VBalistreri, Vincenzo
p1909
aVWin
p1910
aS''
aS''
aa(lp1911
VAlane, Joe
p1912
aVLoss
p1913
aS''
aS''
aa(lp1914
VLentini, Kendrick
p1915
aVLoss
p1916
aS''
aS''
aa(lp1917
VHarwood, Tom
p1918
aVWin
p1919
aS''
aS''
aa(lp1920
VKuprewicz, Sam
p1921
aVWin
p1922
aS''
aS''
aa(lp1923
VAbraham, Mike
p1924
aVDraw
p1925
aS''
aS''
aassV13-06-4312365
p1926
(dp1927
g4
I0
sg5
Nsg6
I2
sg7
S''
sg8
I2
sg9
V10
p1928
sg11
V4
sg13
VBloomington, Illinois, United States
p1929
sg15
g96
sg17
g1926
sg18
VCasual - Constructed
p1930
sg20
I4
sg21
S''
sg22
V2013-06-05
p1931
sg24
(lp1932
(lp1933
VGorrie, Steve
p1934
aVWin
p1935
aS''
aS''
aa(lp1936
VPeterson, Jeremy
p1937
aVLoss
p1938
aS''
aS''
aa(lp1939
VSmiley, Chance
p1940
aVWin
p1941
aS''
aS''
aa(lp1942
VWoerner, Nick
p1943
aVLoss
p1944
aS''
aS''
aassV14-07-5213275
p1945
(dp1946
g4
I0
sg5
Nsg6
I3
sg7
S''
sg8
I1
sg9
V12
p1947
sg11
V2
sg13
VMinneapolis, Minnesota, United States
p1948
sg15
VFriday Night Magic
p1949
sg17
g1945
sg18
VStandard
p1950
sg20
I4
sg21
S''
sg22
V2014-07-18
p1951
sg24
(lp1952
(lp1953
VPeitzer, Scott
p1954
aVWin
p1955
aS''
aS''
aa(lp1956
VHipp, Ryan
p1957
aVLoss
p1958
aS''
aS''
aa(lp1959
VUnknown, Unknown
p1960
aVWin
p1961
aS''
aS''
aa(lp1962
VHammes, James
p1963
aVWin
p1964
aS''
aS''
aassV12-05-3288312
p1965
(dp1966
g4
I0
sg5
Nsg6
I3
sg7
S''
sg8
I4
sg9
V422
p1967
sg11
V217
p1968
sg13
VCollinsville, Illinois, United States
p1969
sg15
VMagic WPN Premium Tournament
p1970
sg17
g1965
sg18
VStandard
p1971
sg20
I7
sg21
S''
sg22
V2012-07-14
p1972
sg24
(lp1973
(lp1974
VByrn, Andrew
p1975
aVWin
p1976
aS''
aS''
aa(lp1977
VNapier, Cody
p1978
aVWin
p1979
aS''
aS''
aa(lp1980
VBehrens, Lance
p1981
aVLoss
p1982
aS''
aS''
aa(lp1983
VPack, Aaron
p1984
aVWin
p1985
aS''
aS''
aa(lp1986
VMoss, Byron
p1987
aVLoss
p1988
aS''
aS''
aa(lp1989
VVaca, Rob
p1990
aVLoss
p1991
aS''
aS''
aa(lp1992
VAter, Jason
p1993
aVLoss
p1994
aS''
aS''
aassV13-05-4271999
p1995
(dp1996
g4
I0
sg5
Nsg6
I3
sg7
S''
sg8
I0
sg9
V8
sg11
V1
sg13
VBloomington, Illinois, United States
p1997
sg15
g96
sg17
g1995
sg18
VCasual - Constructed
p1998
sg20
I3
sg21
S''
sg22
V2013-05-22
p1999
sg24
(lp2000
(lp2001
VYONKE, TYLER
p2002
aVWin
p2003
aS''
aS''
aa(lp2004
VPiotrowiak, Matthew
p2005
aVWin
p2006
aS''
aS''
aa(lp2007
VPeterson, Jeremy
p2008
aVWin
p2009
aS''
aS''
aassV14-05-4969108
p2010
(dp2011
g4
I0
sg5
Nsg6
I8
sg7
S''
sg8
I6
sg9
V400
p2012
sg11
V42
p2013
sg13
VSomerset, New Jersey, United States
p2014
sg15
VMagic WPN Premium Tournament
p2015
sg17
g2010
sg18
VLegacy
p2016
sg20
I14
sg21
S''
sg22
V2014-08-29
p2017
sg24
(lp2018
(lp2019
VCalafell, Joel
p2020
aVWin
p2021
aS''
aS''
aa(lp2022
VCruse, William
p2023
aVLoss
p2024
aS''
aS''
aa(lp2025
VHuang, Bob
p2026
aVWin
p2027
aS''
aS''
aa(lp2028
VKoenig, Robert
p2029
aVWin
p2030
aS''
aS''
aa(lp2031
VTaft, Jake
p2032
aVWin
p2033
aS''
aS''
aa(lp2034
VTietze, Max
p2035
aVWin
p2036
aS''
aS''
aa(lp2037
VSoorani, Shaheen
p2038
aVLoss
p2039
aS''
aS''
aa(lp2040
VDavis, Andrew
p2041
aVWin
p2042
aS''
aS''
aa(lp2043
VFinchler, Alexander
p2044
aVLoss
p2045
aS''
aS''
aa(lp2046
VRynkiewicz, James
p2047
aVLoss
p2048
aS''
aS''
aa(lp2049
VFriedman, Ben
p2050
aVLoss
p2051
aS''
aS''
aa(lp2052
VHatch, Greg
p2053
aVWin
p2054
aS''
aS''
aa(lp2055
VDellaVecchia, Robert
p2056
aVWin
p2057
aS''
aS''
aa(lp2058
VBraverman, Michael
p2059
aVLoss
p2060
aS''
aS''
aassV13-11-4705685
p2061
(dp2062
g4
I0
sg5
Nsg6
I4
sg7
S''
sg8
I3
sg9
V63
p2063
sg11
V17
p2064
sg13
VChantilly, Virginia, United States
p2065
sg15
g96
sg17
g2061
sg18
VStandard
p2066
sg20
I7
sg21
S''
sg22
V2013-11-17
p2067
sg24
(lp2068
(lp2069
VCudia, Ben
p2070
aVWin
p2071
aS''
aS''
aa(lp2072
VSudendorf, Vanessa
p2073
aVLoss
p2074
aS''
aS''
aa(lp2075
VWilliams, Charissa
p2076
aVWin
p2077
aS''
aS''
aa(lp2078
VGuy, Aaron
p2079
aVWin
p2080
aS''
aS''
aa(lp2081
VNEISWENTER, DARYL
p2082
aVWin
p2083
aS''
aS''
aa(lp2084
VPoirier, Steven
p2085
aVLoss
p2086
aS''
aS''
aa(lp2087
VGrigely, Jason
p2088
aVLoss
p2089
aS''
aS''
aassV13-06-4290511
p2090
(dp2091
g4
I0
sg5
Nsg6
I2
sg7
S''
sg8
I3
sg9
V108
p2092
sg11
V54
p2093
sg13
VLas Vegas, Nevada, United States
p2094
sg15
g96
sg17
g2090
sg18
VLegacy
p2095
sg20
I5
sg21
S''
sg22
V2013-06-21
p2096
sg24
(lp2097
(lp2098
VBedalov, John
p2099
aVWin
p2100
aS''
aS''
aa(lp2101
VJurek, Benjamin
p2102
aVWin
p2103
aS''
aS''
aa(lp2104
VBrophy, Sullivan
p2105
aVLoss
p2106
aS''
aS''
aa(lp2107
VHickey, Bryan
p2108
aVLoss
p2109
aS''
aS''
aa(lp2110
VVervalin, Bryce
p2111
aVLoss
p2112
aS''
aS''
aassV14-04-4910094
p2113
(dp2114
g4
I0
sg5
Nsg6
I7
sg7
S''
sg8
I3
sg9
V567
p2115
sg11
V62
p2116
sg13
VIndianapolis, Indiana, United States
p2117
sg15
VMagic WPN Premium Tournament
p2118
sg17
g2113
sg18
VStandard
p2119
sg20
I10
sg21
S''
sg22
V2014-05-31
p2120
sg24
(lp2121
(lp2122
VCravens, Josh
p2123
aVWin
p2124
aS''
aS''
aa(lp2125
VLangley, John
p2126
aVWin
p2127
aS''
aS''
aa(lp2128
VKetter, Kent
p2129
aVLoss
p2130
aS''
aS''
aa(lp2131
VKorb, Shaun
p2132
aVWin
p2133
aS''
aS''
aa(lp2134
VGerhart, Ryan
p2135
aVLoss
p2136
aS''
aS''
aa(lp2137
VFarney, Matt
p2138
aVWin
p2139
aS''
aS''
aa(lp2140
VMartin, Joshua
p2141
aVLoss
p2142
aS''
aS''
aa(lp2143
VHoyt, Daryl
p2144
aVWin
p2145
aS''
aS''
aa(lp2146
VBaylock, Deshaun
p2147
aVWin
p2148
aS''
aS''
aa(lp2149
VPOLTROCK, JORDAN
p2150
aVWin
p2151
aS''
aS''
aassV12-09-3574448
p2152
(dp2153
g4
I0
sg5
Nsg6
I0
sg7
S''
sg8
I1
sg9
V74
p2154
sg11
V58
p2155
sg13
VBloomington, Illinois, United States
p2156
sg15
VMagic Prerelease
p2157
sg17
g2152
sg18
VSealed
p2158
sg20
I1
sg21
S''
sg22
V2012-09-29
p2159
sg24
(lp2160
(lp2161
VRackauskas, Jarrod
p2162
aVLoss
p2163
aS''
aS''
aassV14-09-5395891
p2164
(dp2165
g4
I0
sg5
Nsg6
I6
sg7
S''
sg8
I3
sg9
V260
p2166
sg11
V50
p2167
sg13
VIndianapolis, Indiana, United States
p2168
sg15
VMagic WPN Premium Tournament
p2169
sg17
g2164
sg18
VLegacy
p2170
sg20
I9
sg21
S''
sg22
V2014-09-28
p2171
sg24
(lp2172
(lp2173
VLo, Shong
p2174
aVLoss
p2175
aS''
aS''
aa(lp2176
VPFEIFFER, ERIC
p2177
aVWin
p2178
aS''
aS''
aa(lp2179
VBaxter, Adam
p2180
aVLoss
p2181
aS''
aS''
aa(lp2182
VWEBER, KYLE
p2183
aVWin
p2184
aS''
aS''
aa(lp2185
VFONS, KEVIN
p2186
aVLoss
p2187
aS''
aS''
aa(lp2188
VKETTLE, BLAKE
p2189
aVWin
p2190
aS''
aS''
aa(lp2191
VCoatl, Hester
p2192
aVWin
p2193
aS''
aS''
aa(lp2194
VBrown, Matthew
p2195
aVWin
p2196
aS''
aS''
aa(lp2197
VKanamori, Ryosuke
p2198
aVWin
p2199
aS''
aS''
aassV11-11-3033385
p2200
(dp2201
g4
I0
sg5
Nsg6
I2
sg7
S''
sg8
I2
sg9
V26
p2202
sg11
V10
p2203
sg13
VBloomington, Illinois, United States
p2204
sg15
VFriday Night Magic
p2205
sg17
g2200
sg18
VStandard
p2206
sg20
I4
sg21
S''
sg22
V2011-11-11
p2207
sg24
(lp2208
(lp2209
VTomek, Mark
p2210
aVWin
p2211
aS''
aS''
aa(lp2212
VMatchett, Bill
p2213
aVLoss
p2214
aS''
aS''
aa(lp2215
VFarrell, Brett
p2216
aVWin
p2217
aS''
aS''
aa(lp2218
VLamar, Loren
p2219
aVLoss
p2220
aS''
aS''
aassV11-11-3033384
p2221
(dp2222
g4
I0
sg5
Nsg6
I3
sg7
S''
sg8
I1
sg9
V27
p2223
sg11
V6
sg13
VBloomington, Illinois, United States
p2224
sg15
VFriday Night Magic
p2225
sg17
g2221
sg18
VStandard
p2226
sg20
I4
sg21
S''
sg22
V2011-11-04
p2227
sg24
(lp2228
(lp2229
VHOLT, ZACK
p2230
aVWin
p2231
aS''
aS''
aa(lp2232
VYONKE, TYLER
p2233
aVLoss
p2234
aS''
aS''
aa(lp2235
VBodenbach, Ken
p2236
aVWin
p2237
aS''
aS''
aa(lp2238
VReckard, Kip
p2239
aVWin
p2240
aS''
aS''
aassV11-11-3033387
p2241
(dp2242
g4
I0
sg5
Nsg6
I1
sg7
S''
sg8
I2
sg9
V28
p2243
sg11
V22
p2244
sg13
VBloomington, Illinois, United States
p2245
sg15
VFriday Night Magic
p2246
sg17
g2241
sg18
VStandard
p2247
sg20
I3
sg21
S''
sg22
V2011-11-18
p2248
sg24
(lp2249
(lp2250
VSoltwedel, Steven
p2251
aVLoss
p2252
aS''
aS''
aa(lp2253
VKALDAHL, TAYLOR
p2254
aVLoss
p2255
aS''
aS''
aa(lp2256
VMILBY, LUKE
p2257
aVWin
p2258
aS''
aS''
aassV14-09-5653710
p2259
(dp2260
g4
I0
sg5
Nsg6
I2
sg7
S''
sg8
I1
sg9
V8
sg11
V4
sg13
VBloomington, Illinois, United States
p2261
sg15
g96
sg17
g2259
sg18
VLegacy
p2262
sg20
I3
sg21
S''
sg22
V2014-09-23
p2263
sg24
(lp2264
(lp2265
VSeyko, Bryce
p2266
aVLoss
p2267
aS''
aS''
aa(lp2268
VLenz, Jon
p2269
aVWin
p2270
aS''
aS''
aa(lp2271
VMorris, Keith
p2272
aVWin
p2273
aS''
aS''
aassV14-07-5370490
p2274
(dp2275
g4
I2
sg5
Nsg6
I7
sg7
S''
sg8
I0
sg9
V39
p2276
sg11
V1
sg13
VBuffalo Grove, Illinois, United States
p2277
sg15
g96
sg17
g2274
sg18
VStandard
p2278
sg20
I9
sg21
S''
sg22
V2014-07-05
p2279
sg24
(lp2280
(lp2281
VMurray, John
p2282
aVWin
p2283
aS''
aS''
aa(lp2284
VGirardo, Christopher
p2285
aVWin
p2286
aS''
aS''
aa(lp2287
VSmith, Greg
p2288
aVWin
p2289
aS''
aS''
aa(lp2290
VHEYKAMP, ANDREW
p2291
aVWin
p2292
aS''
aS''
aa(lp2293
VBrohman, Josh
p2294
aVDraw
p2295
aS''
aS''
aa(lp2296
VDow, Matt
p2297
aVDraw
p2298
aS''
aS''
aa(lp2299
VSmith, Greg
p2300
aVWin
p2301
aS''
aS''
aa(lp2302
VMunoz, Jose
p2303
aVWin
p2304
aS''
aS''
aa(lp2305
VBrohman, Josh
p2306
aVWin
p2307
aS''
aS''
aassV13-09-3950430
p2308
(dp2309
g4
I0
sg5
Nsg6
I6
sg7
S''
sg8
I6
sg9
V1461
p2310
sg11
V141
p2311
sg13
VDetroit, Michigan, United States
p2312
sg15
VMagic Grand Prix
p2313
sg17
g2308
sg18
VModern
p2314
sg20
I12
sg21
S''
sg22
V2013-09-14
p2315
sg24
(lp2316
(lp2317
VMartin, Steven
p2318
aVWin
p2319
aS''
aS''
aa(lp2320
VVergo, Eric
p2321
aVWin
p2322
aS''
aS''
aa(lp2323
VPlatt, Cam
p2324
aVLoss
p2325
aS''
aS''
aa(lp2326
VZhang, Peter
p2327
aVLoss
p2328
aS''
aS''
aa(lp2329
VBENNETT, JASON
p2330
aVWin
p2331
aS''
aS''
aa(lp2332
VMarquardt, Robert
p2333
aVWin
p2334
aS''
aS''
aa(lp2335
VFlink, Chris
p2336
aVLoss
p2337
aS''
aS''
aa(lp2338
VBogner, Ryan
p2339
aVLoss
p2340
aS''
aS''
aa(lp2341
VStevens, Jarred
p2342
aVWin
p2343
aS''
aS''
aa(lp2344
VDesotelle, Dwight
p2345
aVLoss
p2346
aS''
aS''
aa(lp2347
VWong, Wilson
p2348
aVWin
p2349
aS''
aS''
aa(lp2350
VMichiels, Tony
p2351
aVLoss
p2352
aS''
aS''
aassV13-04-3964140
p2353
(dp2354
g4
I0
sg5
Nsg6
I6
sg7
S''
sg8
I4
sg9
V589
p2355
sg11
V109
p2356
sg13
VColumbus, Ohio, United States
p2357
sg15
VMagic WPN Premium Tournament
p2358
sg17
g2353
sg18
VStandard
p2359
sg20
I10
sg21
S''
sg22
V2013-06-15
p2360
sg24
(lp2361
(lp2362
VMonnin, Justin
p2363
aVWin
p2364
aS''
aS''
aa(lp2365
VKoch, Kevin
p2366
aVWin
p2367
aS''
aS''
aa(lp2368
VKletz, Michael
p2369
aVWin
p2370
aS''
aS''
aa(lp2371
VMoore, Jeff
p2372
aVLoss
p2373
aS''
aS''
aa(lp2374
VKEATHLEY, RANDY
p2375
aVLoss
p2376
aS''
aS''
aa(lp2377
VBROOK, LEWIS
p2378
aVWin
p2379
aS''
aS''
aa(lp2380
VVanhoose, Bradley
p2381
aVWin
p2382
aS''
aS''
aa(lp2383
VDavis, Brad
p2384
aVLoss
p2385
aS''
aS''
aa(lp2386
VFitzpatrick, James
p2387
aVWin
p2388
aS''
aS''
aa(lp2389
VJagger, Greg
p2390
aVLoss
p2391
aS''
aS''
aassV13-04-3964141
p2392
(dp2393
g4
I0
sg5
Nsg6
I7
sg7
S''
sg8
I2
sg9
V268
p2394
sg11
V12
p2395
sg13
VColumbus, Ohio, United States
p2396
sg15
VMagic WPN Premium Tournament
p2397
sg17
g2392
sg18
VLegacy
p2398
sg20
I9
sg21
S''
sg22
V2013-06-16
p2399
sg24
(lp2400
(lp2401
VHertel, Justin
p2402
aVWin
p2403
aS''
aS''
aa(lp2404
VThompson, Gerry
p2405
aVWin
p2406
aS''
aS''
aa(lp2407
VHazard, Matthew
p2408
aVLoss
p2409
aS''
aS''
aa(lp2410
VMorrow, Andrew
p2411
aVLoss
p2412
aS''
aS''
aa(lp2413
VReschke, Robert
p2414
aVWin
p2415
aS''
aS''
aa(lp2416
VStanden, Chad
p2417
aVWin
p2418
aS''
aS''
aa(lp2419
VFowler, Zach
p2420
aVWin
p2421
aS''
aS''
aa(lp2422
VHOFFMAN, JACOB
p2423
aVWin
p2424
aS''
aS''
aa(lp2425
VPABIN, SEAN
p2426
aVWin
p2427
aS''
aS''
aassV13-10-4629534
p2428
(dp2429
g4
I0
sg5
Nsg6
I0
sg7
S''
sg8
I2
sg9
V30
p2430
sg11
V30
p2431
sg13
VLouisville, Kentucky, United States
p2432
sg15
g96
sg17
g2428
sg18
VModern
p2433
sg20
I2
sg21
S''
sg22
V2013-10-20
p2434
sg24
(lp2435
(lp2436
VMcelroy, Cody
p2437
aVLoss
p2438
aS''
aS''
aa(lp2439
VBurgener, Michael
p2440
aVLoss
p2441
aS''
aS''
aassV13-06-4328284
p2442
(dp2443
g4
I0
sg5
Nsg6
I2
sg7
S''
sg8
I1
sg9
V9
sg11
V4
sg13
VBloomington, Illinois, United States
p2444
sg15
g96
sg17
g2442
sg18
VCasual - Constructed
p2445
sg20
I3
sg21
S''
sg22
V2013-06-10
p2446
sg24
(lp2447
(lp2448
VKnollenberg, Doug
p2449
aVLoss
p2450
aS''
aS''
aa(lp2451
VDelaney, Brandan
p2452
aVWin
p2453
aS''
aS''
aa(lp2454
VPeterson, Jeremy
p2455
aVWin
p2456
aS''
aS''
aassV12-01-3146739
p2457
(dp2458
g4
I0
sg5
Nsg6
I2
sg7
S''
sg8
I2
sg9
V22
p2459
sg11
V9
sg13
VBloomington, Illinois, United States
p2460
sg15
VFriday Night Magic
p2461
sg17
g2457
sg18
VStandard
p2462
sg20
I4
sg21
S''
sg22
V2012-01-13
p2463
sg24
(lp2464
(lp2465
VThoman, Eric S
p2466
aVWin
p2467
aS''
aS''
aa(lp2468
VFriel, Robert
p2469
aVWin
p2470
aS''
aS''
aa(lp2471
VRasmussen, Jeff
p2472
aVLoss
p2473
aS''
aS''
aa(lp2474
VMatchett, Bill
p2475
aVLoss
p2476
aS''
aS''
aassV13-06-4057085
p2477
(dp2478
g4
I0
sg5
Nsg6
I7
sg7
S''
sg8
I2
sg9
V281
p2479
sg11
V15
p2480
sg13
VRosemont, Illinois, United States
p2481
sg15
VMagic Pro Tour Qualifier
p2482
sg17
g2477
sg18
VStandard
p2483
sg20
I9
sg21
S''
sg22
V2013-06-02
p2484
sg24
(lp2485
(lp2486
VWatts, Zach
p2487
aVWin
p2488
aS''
aS''
aa(lp2489
VPelfrey, Ryan
p2490
aVWin
p2491
aS''
aS''
aa(lp2492
VDally, Adam
p2493
aVWin
p2494
aS''
aS''
aa(lp2495
VMoore, Nick
p2496
aVLoss
p2497
aS''
aS''
aa(lp2498
VDuan, Daniel
p2499
aVLoss
p2500
aS''
aS''
aa(lp2501
VPelowski, Nick
p2502
aVWin
p2503
aS''
aS''
aa(lp2504
VMorelli, Paul
p2505
aVWin
p2506
aS''
aS''
aa(lp2507
VHanning, Richard
p2508
aVWin
p2509
aS''
aS''
aa(lp2510
VPozsgay, Michael
p2511
aVWin
p2512
aS''
aS''
aassV12-04-3298306
p2513
(dp2514
g4
I0
sg5
Nsg6
I3
sg7
S''
sg8
I1
sg9
V39
p2515
sg11
V9
sg13
VBloomington, Illinois, United States
p2516
sg15
VFriday Night Magic
p2517
sg17
g2513
sg18
VStandard
p2518
sg20
I4
sg21
S''
sg22
V2012-04-13
p2519
sg24
(lp2520
(lp2521
VSoltwedel, Steven
p2522
aVWin
p2523
aS''
aS''
aa(lp2524
VDicken, Jim
p2525
aVWin
p2526
aS''
aS''
aa(lp2527
VMORLEY, TJ
p2528
aVLoss
p2529
aS''
aS''
aa(lp2530
VGorrie, Steve
p2531
aVWin
p2532
aS''
aS''
aassV14-01-4679298
p2533
(dp2534
g4
I0
sg5
Nsg6
I2
sg7
S''
sg8
I4
sg9
V577
p2535
sg11
V393
p2536
sg13
VCharlotte, North Carolina, United States
p2537
sg15
VMagic WPN Premium Tournament
p2538
sg17
g2533
sg18
VStandard
p2539
sg20
I6
sg21
S''
sg22
V2014-03-29
p2540
sg24
(lp2541
(lp2542
VAlcorn, Austin
p2543
aVWin
p2544
aS''
aS''
aa(lp2545
VEannello, Joseph
p2546
aVLoss
p2547
aS''
aS''
aa(lp2548
VCard, Steven
p2549
aVWin
p2550
aS''
aS''
aa(lp2551
VTramper, Auston
p2552
aVLoss
p2553
aS''
aS''
aa(lp2554
VEldred, Tim
p2555
aVLoss
p2556
aS''
aS''
aa(lp2557
VSams, Freddy
p2558
aVLoss
p2559
aS''
aS''
aassV14-01-4679299
p2560
(dp2561
g4
I0
sg5
Nsg6
I5
sg7
S''
sg8
I4
sg9
V385
p2562
sg11
V119
p2563
sg13
VCharlotte, North Carolina, United States
p2564
sg15
VMagic WPN Premium Tournament
p2565
sg17
g2560
sg18
VLegacy
p2566
sg20
I9
sg21
S''
sg22
V2014-03-30
p2567
sg24
(lp2568
(lp2569
VBush, Stephen
p2570
aVLoss
p2571
aS''
aS''
aa(lp2572
VHumberd, Drew
p2573
aVLoss
p2574
aS''
aS''
aa(lp2575
VHarris, Dylan
p2576
aVWin
p2577
aS''
aS''
aa(lp2578
VBarnard, Cole
p2579
aVWin
p2580
aS''
aS''
aa(lp2581
VSoorani, Shaheen
p2582
aVWin
p2583
aS''
aS''
aa(lp2584
VZell, Susan
p2585
aVLoss
p2586
aS''
aS''
aa(lp2587
VOkashah, Adam
p2588
aVWin
p2589
aS''
aS''
aa(lp2590
VGaddis, Keaton
p2591
aVWin
p2592
aS''
aS''
aa(lp2593
VBOWERY, DANIEL
p2594
aVLoss
p2595
aS''
aS''
aassV12-05-3287160
p2596
(dp2597
g4
I1
sg5
Nsg6
I5
sg7
S''
sg8
I3
sg9
V315
p2598
sg11
V70
p2599
sg13
VIndianapolis, Indiana, United States
p2600
sg15
VMagic WPN Premium Tournament
p2601
sg17
g2596
sg18
VLegacy
p2602
sg20
I9
sg21
S''
sg22
V2012-06-17
p2603
sg24
(lp2604
(lp2605
VRayden, Josh
p2606
aVWin
p2607
aS''
aS''
aa(lp2608
VSorenson, Sam
p2609
aVLoss
p2610
aS''
aS''
aa(lp2611
VYoung, Garett
p2612
aVLoss
p2613
aS''
aS''
aa(lp2614
VBUCHANAN, SAMUEL
p2615
aVWin
p2616
aS''
aS''
aa(lp2617
VMcdarby, David
p2618
aVWin
p2619
aS''
aS''
aa(lp2620
VPendleton, Coy
p2621
aVDraw
p2622
aS''
aS''
aa(lp2623
VFritz, Thomas
p2624
aVWin
p2625
aS''
aS''
aa(lp2626
VHAAS, KENNEN
p2627
aVLoss
p2628
aS''
aS''
aa(lp2629
VNORMAN, KYLE
p2630
aVWin
p2631
aS''
aS''
aassV14-04-4910100[14]
p2632
(dp2633
g4
I0
sg5
Nsg6
I4
sg7
S''
sg8
I0
sg9
V15
p2634
sg11
V1
sg13
VColumbus, Ohio, United States
p2635
sg15
g96
sg17
g2632
sg18
VLegacy
p2636
sg20
I4
sg21
S''
sg22
V2014-06-12
p2637
sg24
(lp2638
(lp2639
VHess, Ryan
p2640
aVWin
p2641
aS''
aS''
aa(lp2642
VWoerner, Nick
p2643
aVWin
p2644
aS''
aS''
aa(lp2645
VGolob, Jonathan
p2646
aVWin
p2647
aS''
aS''
aa(lp2648
VHefner, Jessy
p2649
aVWin
p2650
aS''
aS''
aassV12-08-3440642[16]
p2651
(dp2652
g4
I0
sg5
Nsg6
I1
sg7
S''
sg8
I1
sg9
V8
sg11
V4
sg13
VIndianapolis, Indiana, United States
p2653
sg15
g96
sg17
g2651
sg18
VBooster Draft
p2654
sg20
I2
sg21
S''
sg22
V2012-10-21
p2655
sg24
(lp2656
(lp2657
VKoenig, Brandon
p2658
aVWin
p2659
aS''
aS''
aa(lp2660
VSearles, Jacob
p2661
aVLoss
p2662
aS''
aS''
aassV12-03-3275167
p2663
(dp2664
g4
I0
sg5
Nsg6
I0
sg7
S''
sg8
I2
sg9
V39
p2665
sg11
V34
p2666
sg13
VBloomington, Illinois, United States
p2667
sg15
g96
sg17
g2663
sg18
VLegacy
p2668
sg20
I2
sg21
S''
sg22
V2012-03-24
p2669
sg24
(lp2670
(lp2671
VGeorge, Timothy
p2672
aVLoss
p2673
aS''
aS''
aa(lp2674
VHoffman, Eric
p2675
aVLoss
p2676
aS''
aS''
aassV12-08-3521189
p2677
(dp2678
g4
I0
sg5
Nsg6
I4
sg7
S''
sg8
I0
sg9
V41
p2679
sg11
V2
sg13
VBloomington, Illinois, United States
p2680
sg15
VFriday Night Magic
p2681
sg17
g2677
sg18
VStandard
p2682
sg20
I4
sg21
S''
sg22
V2012-08-31
p2683
sg24
(lp2684
(lp2685
VSoltwedel, Steven
p2686
aVWin
p2687
aS''
aS''
aa(lp2688
VRuth, Jonathan
p2689
aVWin
p2690
aS''
aS''
aa(lp2691
VWiltse, Joshua
p2692
aVWin
p2693
aS''
aS''
aa(lp2694
VHutchins, Phillip
p2695
aVWin
p2696
aS''
aS''
aassV14-05-4969074
p2697
(dp2698
g4
I0
sg5
Nsg6
I8
sg7
S''
sg8
I2
sg9
V514
p2699
sg11
V16
p2700
sg13
VCollinsville, Illinois, United States
p2701
sg15
VMagic WPN Premium Tournament
p2702
sg17
g2697
sg18
VStandard
p2703
sg20
I10
sg21
S''
sg22
V2014-09-06
p2704
sg24
(lp2705
(lp2706
VTreadway, Hayden
p2707
aVWin
p2708
aS''
aS''
aa(lp2709
VWeil, Alan
p2710
aVWin
p2711
aS''
aS''
aa(lp2712
VBuen, Michael
p2713
aVWin
p2714
aS''
aS''
aa(lp2715
VBerkenbile, Sam
p2716
aVWin
p2717
aS''
aS''
aa(lp2718
VBauer, Ben
p2719
aVWin
p2720
aS''
aS''
aa(lp2721
VBasham, Levi
p2722
aVLoss
p2723
aS''
aS''
aa(lp2724
VPaynic, Anthony
p2725
aVWin
p2726
aS''
aS''
aa(lp2727
VBernal, Joe
p2728
aVLoss
p2729
aS''
aS''
aa(lp2730
VCowsert, Joseph
p2731
aVWin
p2732
aS''
aS''
aa(lp2733
VTaylor, Zachary
p2734
aVWin
p2735
aS''
aS''
aassV14-04-4910081[72]
p2736
(dp2737
g4
I0
sg5
Nsg6
I3
sg7
S''
sg8
I0
sg9
V8
sg11
V1
sg13
VSomerset, New Jersey, United States
p2738
sg15
g96
sg17
g2736
sg18
VModern
p2739
sg20
I3
sg21
S''
sg22
V2014-05-24
p2740
sg24
(lp2741
(lp2742
VAndrew, Noah
p2743
aVWin
p2744
aS''
aS''
aa(lp2745
VRose, Phil
p2746
aVWin
p2747
aS''
aS''
aa(lp2748
VChackonal, Vipin
p2749
aVWin
p2750
aS''
aS''
aassV12-01-3104789A[24]
p2751
(dp2752
g4
I1
sg5
Nsg6
I2
sg7
S''
sg8
I0
sg9
V8
sg11
V2
sg13
VSharonville, Ohio, United States
p2753
sg15
g96
sg17
g2751
sg18
VStandard
p2754
sg20
I3
sg21
S''
sg22
V2012-02-12
p2755
sg24
(lp2756
(lp2757
VFLYNN, KYLE
p2758
aVWin
p2759
aS''
aS''
aa(lp2760
VBuchanan, Ed
p2761
aVWin
p2762
aS''
aS''
aa(lp2763
VChapmen, Blake
p2764
aVDraw
p2765
aS''
aS''
aassV11-09-2946919
p2766
(dp2767
g4
I0
sg5
Nsg6
I3
sg7
S''
sg8
I1
sg9
V29
p2768
sg11
V7
sg13
VBloomington, Illinois, United States
p2769
sg15
VFriday Night Magic
p2770
sg17
g2766
sg18
VStandard
p2771
sg20
I4
sg21
S''
sg22
V2011-09-23
p2772
sg24
(lp2773
(lp2774
VGorrie, Steve
p2775
aVWin
p2776
aS''
aS''
aa(lp2777
VGAROWSKI, ALEX
p2778
aVLoss
p2779
aS''
aS''
aa(lp2780
VGarrett, Anthony
p2781
aVWin
p2782
aS''
aS''
aa(lp2783
VBastert, Nathan
p2784
aVWin
p2785
aS''
aS''
aassV12-03-3224714
p2786
(dp2787
g4
I0
sg5
Nsg6
I2
sg7
S''
sg8
I2
sg9
V26
p2788
sg11
V9
sg13
VBloomington, Illinois, United States
p2789
sg15
VFriday Night Magic
p2790
sg17
g2786
sg18
VStandard
p2791
sg20
I4
sg21
S''
sg22
V2012-03-16
p2792
sg24
(lp2793
(lp2794
VHarris, Michael
p2795
aVWin
p2796
aS''
aS''
aa(lp2797
VJones, Brian
p2798
aVWin
p2799
aS''
aS''
aa(lp2800
VThoman, Eric S
p2801
aVLoss
p2802
aS''
aS''
aa(lp2803
VMARION, ANDREW S
p2804
aVLoss
p2805
aS''
aS''
aassV12-08-3440640
p2806
(dp2807
g4
I0
sg5
Nsg6
I4
sg7
S''
sg8
I3
sg9
V457
p2808
sg11
V170
p2809
sg13
VIndianapolis, Indiana, United States
p2810
sg15
VMagic WPN Premium Tournament
p2811
sg17
g2806
sg18
VStandard
p2812
sg20
I7
sg21
S''
sg22
V2012-10-20
p2813
sg24
(lp2814
(lp2815
VHuddleson, Levi
p2816
aVWin
p2817
aS''
aS''
aa(lp2818
VCOHEN, BRETT
p2819
aVLoss
p2820
aS''
aS''
aa(lp2821
VHIGGINS, THOMAS
p2822
aVLoss
p2823
aS''
aS''
aa(lp2824
VNellis, Daine
p2825
aVWin
p2826
aS''
aS''
aa(lp2827
VKonkey, Adam
p2828
aVWin
p2829
aS''
aS''
aa(lp2830
VEitel, Matthew
p2831
aVWin
p2832
aS''
aS''
aa(lp2833
VRothenberger, Deryck
p2834
aVLoss
p2835
aS''
aS''
aassV12-03-3224716
p2836
(dp2837
g4
I0
sg5
Nsg6
I4
sg7
S''
sg8
I0
sg9
V34
p2838
sg11
V1
sg13
VBloomington, Illinois, United States
p2839
sg15
VFriday Night Magic
p2840
sg17
g2836
sg18
VStandard
p2841
sg20
I4
sg21
S''
sg22
V2012-03-30
p2842
sg24
(lp2843
(lp2844
VLien, Seth
p2845
aVWin
p2846
aS''
aS''
aa(lp2847
VSoltwedel, Steven
p2848
aVWin
p2849
aS''
aS''
aa(lp2850
VMILBY, LUKE
p2851
aVWin
p2852
aS''
aS''
aa(lp2853
VTIPPETT, JASON
p2854
aVWin
p2855
aS''
aS''
aassV12-08-3440642
p2856
(dp2857
g4
I0
sg5
Nsg6
I3
sg7
S''
sg8
I4
sg9
V204
p2858
sg11
V106
p2859
sg13
VIndianapolis, Indiana, United States
p2860
sg15
VMagic WPN Premium Tournament
p2861
sg17
g2856
sg18
VLegacy
p2862
sg20
I7
sg21
S''
sg22
V2012-10-21
p2863
sg24
(lp2864
(lp2865
VHerzog, Thomas
p2866
aVLoss
p2867
aS''
aS''
aa(lp2868
VBrandenburg, Toby
p2869
aVWin
p2870
aS''
aS''
aa(lp2871
VHotza, Adem
p2872
aVLoss
p2873
aS''
aS''
aa(lp2874
VBevans, Allen
p2875
aVWin
p2876
aS''
aS''
aa(lp2877
VBullwinkel, Tony
p2878
aVWin
p2879
aS''
aS''
aa(lp2880
Vduncan, cary
p2881
aVLoss
p2882
aS''
aS''
aa(lp2883
VLarson, Aaron
p2884
aVLoss
p2885
aS''
aS''
aassV12-09-3574473
p2886
(dp2887
g4
I0
sg5
Nsg6
I3
sg7
S''
sg8
I1
sg9
V64
p2888
sg11
V14
p2889
sg13
VBloomington, Illinois, United States
p2890
sg15
VMagic Prerelease
p2891
sg17
g2886
sg18
VSealed
p2892
sg20
I4
sg21
S''
sg22
V2012-09-29
p2893
sg24
(lp2894
(lp2895
VSIMPKINS, ERIC
p2896
aVLoss
p2897
aS''
aS''
aa(lp2898
VSpiesz, Brennan
p2899
aVWin
p2900
aS''
aS''
aa(lp2901
VMorris, Keith
p2902
aVWin
p2903
aS''
aS''
aa(lp2904
VJOHNSON, ANDREW
p2905
aVWin
p2906
aS''
aS''
aassV12-03-3224712
p2907
(dp2908
g4
I0
sg5
Nsg6
I3
sg7
S''
sg8
I1
sg9
V41
p2909
sg11
V5
sg13
VBloomington, Illinois, United States
p2910
sg15
VFriday Night Magic
p2911
sg17
g2907
sg18
VStandard
p2912
sg20
I4
sg21
S''
sg22
V2012-03-02
p2913
sg24
(lp2914
(lp2915
VTIPPETT, JASON
p2916
aVWin
p2917
aS''
aS''
aa(lp2918
VMurphy, Nat
p2919
aVWin
p2920
aS''
aS''
aa(lp2921
VHarris, Michael
p2922
aVWin
p2923
aS''
aS''
aa(lp2924
VTomek, Mark
p2925
aVLoss
p2926
aS''
aS''
aassV12-03-3224713
p2927
(dp2928
g4
I0
sg5
Nsg6
I3
sg7
S''
sg8
I1
sg9
V23
p2929
sg11
V4
sg13
VBloomington, Illinois, United States
p2930
sg15
VFriday Night Magic
p2931
sg17
g2927
sg18
VStandard
p2932
sg20
I4
sg21
S''
sg22
V2012-03-09
p2933
sg24
(lp2934
(lp2935
VKunze, David M
p2936
aVWin
p2937
aS''
aS''
aa(lp2938
VPoirier, Marc D
p2939
aVLoss
p2940
aS''
aS''
aa(lp2941
VThoman, Eric S
p2942
aVWin
p2943
aS''
aS''
aa(lp2944
VHutchins, Phillip
p2945
aVWin
p2946
aS''
aS''
aassV13-05-4099889
p2947
(dp2948
g4
I0
sg5
Nsg6
I4
sg7
S''
sg8
I1
sg9
V28
p2949
sg11
V2
sg13
VLemont, Illinois, United States
p2950
sg15
VFriday Night Magic
p2951
sg17
g2947
sg18
VStandard
p2952
sg20
I5
sg21
S''
sg22
V2013-05-10
p2953
sg24
(lp2954
(lp2955
VKostka, Sean
p2956
aVWin
p2957
aS''
aS''
aa(lp2958
VBagley, Brett
p2959
aVLoss
p2960
aS''
aS''
aa(lp2961
VKlassen, Barrett
p2962
aVWin
p2963
aS''
aS''
aa(lp2964
VGoldie, Ronald
p2965
aVWin
p2966
aS''
aS''
aa(lp2967
VDank, Jason
p2968
aVWin
p2969
aS''
aS''
aassV12-06-3330321
p2970
(dp2971
g4
I0
sg5
Nsg6
I3
sg7
S''
sg8
I3
sg9
V142
p2972
sg11
V63
p2973
sg13
VNiles, Illinois, United States
p2974
sg15
VMagic Pro Tour Qualifier
p2975
sg17
g2970
sg18
VStandard
p2976
sg20
I6
sg21
S''
sg22
V2012-06-30
p2977
sg24
(lp2978
(lp2979
VWilliams, Alex
p2980
aVLoss
p2981
aS''
aS''
aa(lp2982
VBates, Cameron
p2983
aVWin
p2984
aS''
aS''
aa(lp2985
VGoldberg, Zachary
p2986
aVWin
p2987
aS''
aS''
aa(lp2988
VPurn, Michael
p2989
aVWin
p2990
aS''
aS''
aa(lp2991
VKnox, Robert
p2992
aVLoss
p2993
aS''
aS''
aa(lp2994
VHuelsman, Stephen
p2995
aVLoss
p2996
aS''
aS''
aassV11-11-3033390
p2997
(dp2998
g4
I0
sg5
Nsg6
I2
sg7
S''
sg8
I2
sg9
V20
p2999
sg11
V7
sg13
VBloomington, Illinois, United States
p3000
sg15
VFriday Night Magic
p3001
sg17
g2997
sg18
VStandard
p3002
sg20
I4
sg21
S''
sg22
V2011-11-25
p3003
sg24
(lp3004
(lp3005
VBrown, Robert
p3006
aVWin
p3007
aS''
aS''
aa(lp3008
VOGLESBY, MCLEAN
p3009
aVWin
p3010
aS''
aS''
aa(lp3011
VTIPPETT, JASON
p3012
aVLoss
p3013
aS''
aS''
aa(lp3014
VMARION, ANDREW S
p3015
aVLoss
p3016
aS''
aS''
aassV13-12-4645494
p3017
(dp3018
g4
I0
sg5
Nsg6
I3
sg7
S''
sg8
I1
sg9
V12
p3019
sg11
V2
sg13
VBloomington, Illinois, United States
p3020
sg15
VFriday Night Magic
p3021
sg17
g3017
sg18
VStandard
p3022
sg20
I4
sg21
S''
sg22
V2013-12-06
p3023
sg24
(lp3024
(lp3025
VMorris, Keith
p3026
aVWin
p3027
aS''
aS''
aa(lp3028
VWiltse, Josh
p3029
aVWin
p3030
aS''
aS''
aa(lp3031
VOGLESBY, MCLEAN
p3032
aVWin
p3033
aS''
aS''
aa(lp3034
VRasmussen, Jeff
p3035
aVLoss
p3036
aS''
aS''
aassV11-12-3086156
p3037
(dp3038
g4
I0
sg5
Nsg6
I3
sg7
S''
sg8
I1
sg9
V24
p3039
sg11
V5
sg13
VBloomington, Illinois, United States
p3040
sg15
VFriday Night Magic
p3041
sg17
g3037
sg18
VStandard
p3042
sg20
I4
sg21
S''
sg22
V2011-12-30
p3043
sg24
(lp3044
(lp3045
VMARION, ANDREW S
p3046
aVWin
p3047
aS''
aS''
aa(lp3048
VPatterson IV, James
p3049
aVWin
p3050
aS''
aS''
aa(lp3051
VGeorge, Timothy
p3052
aVLoss
p3053
aS''
aS''
aa(lp3054
VPeterson, Jeremy
p3055
aVWin
p3056
aS''
aS''
aassV11-09-2946922
p3057
(dp3058
g4
I0
sg5
Nsg6
I3
sg7
S''
sg8
I1
sg9
V16
p3059
sg11
V5
sg13
VBloomington, Illinois, United States
p3060
sg15
VFriday Night Magic
p3061
sg17
g3057
sg18
VStandard
p3062
sg20
I4
sg21
S''
sg22
V2011-09-30
p3063
sg24
(lp3064
(lp3065
VKERBER, CHRIS
p3066
aVWin
p3067
aS''
aS''
aa(lp3068
VBodenbach, Ken
p3069
aVLoss
p3070
aS''
aS''
aa(lp3071
VSUSSMAN, ROB A
p3072
aVWin
p3073
aS''
aS''
aa(lp3074
VGAROWSKI, ALEX
p3075
aVWin
p3076
aS''
aS''
aassV11-12-3086154
p3077
(dp3078
g4
I0
sg5
Nsg6
I3
sg7
S''
sg8
I1
sg9
V16
p3079
sg11
V3
sg13
VBloomington, Illinois, United States
p3080
sg15
VFriday Night Magic
p3081
sg17
g3077
sg18
VStandard
p3082
sg20
I4
sg21
S''
sg22
V2011-12-23
p3083
sg24
(lp3084
(lp3085
VMoore, Andy
p3086
aVWin
p3087
aS''
aS''
aa(lp3088
VMARION, ANDREW S
p3089
aVLoss
p3090
aS''
aS''
aa(lp3091
VMILBY, LUKE
p3092
aVWin
p3093
aS''
aS''
aa(lp3094
VPacholski, Andy
p3095
aVWin
p3096
aS''
aS''
aassV14-04-5122901
p3097
(dp3098
g4
I0
sg5
Nsg6
I4
sg7
S''
sg8
I2
sg9
V55
p3099
sg11
V11
p3100
sg13
VNiles, Illinois, United States
p3101
sg15
VMagic WPN Premium Tournament
p3102
sg17
g3097
sg18
VModern
p3103
sg20
I6
sg21
S''
sg22
V2014-06-28
p3104
sg24
(lp3105
(lp3106
Vklein, lucien
p3107
aVWin
p3108
aS''
aS''
aa(lp3109
VPLATT, BRENT
p3110
aVWin
p3111
aS''
aS''
aa(lp3112
VHoey, Matthew
p3113
aVLoss
p3114
aS''
aS''
aa(lp3115
VNeal, Daniel
p3116
aVWin
p3117
aS''
aS''
aa(lp3118
VBernat, Michael
p3119
aVWin
p3120
aS''
aS''
aa(lp3121
VFalkenrath, Chris
p3122
aVLoss
p3123
aS''
aS''
aassV11-12-3086152
p3124
(dp3125
g4
I0
sg5
Nsg6
I2
sg7
S''
sg8
I1
sg9
V31
p3126
sg11
V3
sg13
VBloomington, Illinois, United States
p3127
sg15
VFriday Night Magic
p3128
sg17
g3124
sg18
VStandard
p3129
sg20
I3
sg21
S''
sg22
V2011-12-16
p3130
sg24
(lp3131
(lp3132
VPeterson, Jeremy
p3133
aVWin
p3134
aS''
aS''
aa(lp3135
VFriel, Robert
p3136
aVWin
p3137
aS''
aS''
aa(lp3138
VGorrie, Steve
p3139
aVLoss
p3140
aS''
aS''
aassV11-12-3086151
p3141
(dp3142
g4
I0
sg5
Nsg6
I4
sg7
S''
sg8
I0
sg9
V23
p3143
sg11
V1
sg13
VBloomington, Illinois, United States
p3144
sg15
VFriday Night Magic
p3145
sg17
g3141
sg18
VStandard
p3146
sg20
I4
sg21
S''
sg22
V2011-12-02
p3147
sg24
(lp3148
(lp3149
VKletz, Michael
p3150
aVWin
p3151
aS''
aS''
aa(lp3152
VDicken, Jim
p3153
aVWin
p3154
aS''
aS''
aa(lp3155
VGeorge, Timothy
p3156
aVWin
p3157
aS''
aS''
aa(lp3158
VPeterson, Jeremy
p3159
aVWin
p3160
aS''
aS''
aassV13-04-3964139
p3161
(dp3162
g4
I1
sg5
Nsg6
I6
sg7
S''
sg8
I2
sg9
V280
p3163
sg11
V28
p3164
sg13
VCollinsville, Illinois, United States
p3165
sg15
VMagic WPN Premium Tournament
p3166
sg17
g3161
sg18
VLegacy
p3167
sg20
I9
sg21
S''
sg22
V2013-06-09
p3168
sg24
(lp3169
(lp3170
VWalton, Christopher
p3171
aVWin
p3172
aS''
aS''
aa(lp3173
VCampbell, Brad
p3174
aVWin
p3175
aS''
aS''
aa(lp3176
VMccoy, James
p3177
aVLoss
p3178
aS''
aS''
aa(lp3179
VTABLER, DAVID
p3180
aVWin
p3181
aS''
aS''
aa(lp3182
VCalhoun, Caleb
p3183
aVWin
p3184
aS''
aS''
aa(lp3185
VHoey, Matthew
p3186
aVWin
p3187
aS''
aS''
aa(lp3188
VLOZANO, ANDREW
p3189
aVLoss
p3190
aS''
aS''
aa(lp3191
VCooper, Brian
p3192
aVWin
p3193
aS''
aS''
aa(lp3194
VMoss, Byron
p3195
aVDraw
p3196
aS''
aS''
aassV13-04-3964138
p3197
(dp3198
g4
I0
sg5
Nsg6
I6
sg7
S''
sg8
I4
sg9
V474
p3199
sg11
V94
p3200
sg13
VCollinsville, Illinois, United States
p3201
sg15
VMagic WPN Premium Tournament
p3202
sg17
g3197
sg18
VStandard
p3203
sg20
I10
sg21
S''
sg22
V2013-06-08
p3204
sg24
(lp3205
(lp3206
VDembinski, Kyle
p3207
aVWin
p3208
aS''
aS''
aa(lp3209
VZiggas, Andrew
p3210
aVLoss
p3211
aS''
aS''
aa(lp3212
VKETTLE, BLAKE
p3213
aVWin
p3214
aS''
aS''
aa(lp3215
VPatterson, Daniel
p3216
aVLoss
p3217
aS''
aS''
aa(lp3218
VPerkins, Raymond
p3219
aVWin
p3220
aS''
aS''
aa(lp3221
VStewart, Jim
p3222
aVWin
p3223
aS''
aS''
aa(lp3224
VEdens, Joseph
p3225
aVWin
p3226
aS''
aS''
aa(lp3227
VSendejas, Dustin
p3228
aVLoss
p3229
aS''
aS''
aa(lp3230
VLockwood, John
p3231
aVWin
p3232
aS''
aS''
aa(lp3233
VEmery, Korey
p3234
aVLoss
p3235
aS''
aS''
aassV14-07-5213239
p3236
(dp3237
g4
I0
sg5
Nsg6
I4
sg7
S''
sg8
I0
sg9
V36
p3238
sg11
V1
sg13
VMinneapolis, Minnesota, United States
p3239
sg15
VFriday Night Magic
p3240
sg17
g3236
sg18
VStandard
p3241
sg20
I4
sg21
S''
sg22
V2014-07-18
p3242
sg24
(lp3243
(lp3244
VHepola, Jason
p3245
aVWin
p3246
aS''
aS''
aa(lp3247
VSTRAND, RYAN
p3248
aVWin
p3249
aS''
aS''
aa(lp3250
VMohr, Malcolm
p3251
aVWin
p3252
aS''
aS''
aa(lp3253
VHALLER, JESSE
p3254
aVWin
p3255
aS''
aS''
aassV13-10-3950433
p3256
(dp3257
g4
I0
sg5
Nsg6
I3
sg7
S''
sg8
I3
sg9
V1049
p3258
sg11
V176
p3259
sg13
VLouisville, Kentucky, United States
p3260
sg15
VMagic Grand Prix
p3261
sg17
g3256
sg18
VStandard
p3262
sg20
I6
sg21
S''
sg22
V2013-10-19
p3263
sg24
(lp3264
(lp3265
VCoqueiro, Raphael
p3266
aVLoss
p3267
aS''
aS''
aa(lp3268
VMurphy, Austin
p3269
aVWin
p3270
aS''
aS''
aa(lp3271
VBuckner, Ryan
p3272
aVWin
p3273
aS''
aS''
aa(lp3274
VPERDUE, HEATH
p3275
aVWin
p3276
aS''
aS''
aa(lp3277
VBolding, Jon
p3278
aVLoss
p3279
aS''
aS''
aa(lp3280
VUppal, Justin
p3281
aVLoss
p3282
aS''
aS''
aassV14-09-5395822
p3283
(dp3284
g4
I0
sg5
Nsg6
I5
sg7
S''
sg8
I2
sg9
V108
p3285
sg11
V15
p3286
sg13
VCollinsville, Illinois, United States
p3287
sg15
g96
sg17
g3283
sg18
VModern
p3288
sg20
I7
sg21
S''
sg22
V2014-09-07
p3289
sg24
(lp3290
(lp3291
VKELLY, JAMIE
p3292
aVWin
p3293
aS''
aS''
aa(lp3294
VPuls, Matt
p3295
aVWin
p3296
aS''
aS''
aa(lp3297
VThorburg, Randy
p3298
aVWin
p3299
aS''
aS''
aa(lp3300
VJohnson, James
p3301
aVWin
p3302
aS''
aS''
aa(lp3303
VJacobs, Robert
p3304
aVLoss
p3305
aS''
aS''
aa(lp3306
VEales, Andrew
p3307
aVWin
p3308
aS''
aS''
aa(lp3309
VSilberman, Phil
p3310
aVLoss
p3311
aS''
aS''
aassV12-10-3668859
p3312
(dp3313
g4
I0
sg5
Nsg6
I3
sg7
S''
sg8
I1
sg9
V36
p3314
sg11
V5
sg13
VBloomington, Illinois, United States
p3315
sg15
VFriday Night Magic
p3316
sg17
g3312
sg18
VStandard
p3317
sg20
I4
sg21
S''
sg22
V2012-10-26
p3318
sg24
(lp3319
(lp3320
VKaufman, Cj
p3321
aVWin
p3322
aS''
aS''
aa(lp3323
VKalmbach, Mike
p3324
aVWin
p3325
aS''
aS''
aa(lp3326
VROBERTS, ALEX
p3327
aVLoss
p3328
aS''
aS''
aa(lp3329
VNyberg, Michael
p3330
aVWin
p3331
aS''
aS''
aassV12-01-3146738
p3332
(dp3333
g4
I0
sg5
Nsg6
I3
sg7
S''
sg8
I1
sg9
V23
p3334
sg11
V5
sg13
VBloomington, Illinois, United States
p3335
sg15
VFriday Night Magic
p3336
sg17
g3332
sg18
VStandard
p3337
sg20
I4
sg21
S''
sg22
V2012-01-06
p3338
sg24
(lp3339
(lp3340
VTERRINI, JOE
p3341
aVWin
p3342
aS''
aS''
aa(lp3343
VDicken, Jim
p3344
aVWin
p3345
aS''
aS''
aa(lp3346
VDelaney, Brandan
p3347
aVWin
p3348
aS''
aS''
aa(lp3349
VBodenbach, Ken
p3350
aVLoss
p3351
aS''
aS''
aassV13-12-4851985
p3352
(dp3353
g4
I0
sg5
Nsg6
I2
sg7
S''
sg8
I1
sg9
V8
sg11
V4
sg13
VBloomington, Illinois, United States
p3354
sg15
g96
sg17
g3352
sg18
VCasual - Constructed
p3355
sg20
I3
sg21
S''
sg22
V2013-12-26
p3356
sg24
(lp3357
(lp3358
VRipper, Matt
p3359
aVLoss
p3360
aS''
aS''
aa(lp3361
VMILBY, LUKE
p3362
aVWin
p3363
aS''
aS''
aa(lp3364
VSchaefer, Josh
p3365
aVWin
p3366
aS''
aS''
aassV14-01-4679267
p3367
(dp3368
g4
I0
sg5
Nsg6
I8
sg7
S''
sg8
I3
sg9
V714
p3369
sg11
V55
p3370
sg13
VIndianapolis, Indiana, United States
p3371
sg15
VMagic WPN Premium Tournament
p3372
sg17
g3367
sg18
VStandard
p3373
sg20
I11
sg21
S''
sg22
V2014-01-04
p3374
sg24
(lp3375
(lp3376
VGROSSMAN, JASPER
p3377
aVWin
p3378
aS''
aS''
aa(lp3379
VWyrick, Greg
p3380
aVWin
p3381
aS''
aS''
aa(lp3382
Vmerced, davis
p3383
aVLoss
p3384
aS''
aS''
aa(lp3385
VEmmons, Brianna
p3386
aVLoss
p3387
aS''
aS''
aa(lp3388
VSANDLIN, TYLER
p3389
aVWin
p3390
aS''
aS''
aa(lp3391
VSUTTON, MICHAEL
p3392
aVWin
p3393
aS''
aS''
aa(lp3394
VGraves, Robert
p3395
aVLoss
p3396
aS''
aS''
aa(lp3397
VDAttilio, Bill
p3398
aVWin
p3399
aS''
aS''
aa(lp3400
VDIXON, ROBERT
p3401
aVWin
p3402
aS''
aS''
aa(lp3403
VLEFFEL, DUSTIN
p3404
aVWin
p3405
aS''
aS''
aa(lp3406
VHIATT, SHANE
p3407
aVWin
p3408
aS''
aS''
aassV14-09-5489712
p3409
(dp3410
g4
I0
sg5
Nsg6
I2
sg7
S''
sg8
I3
sg9
V21
p3411
sg11
V17
p3412
sg13
VGlendale, Wisconsin, United States
p3413
sg15
VMagic Grand Prix Trial
p3414
sg17
g3409
sg18
VStandard
p3415
sg20
I5
sg21
S''
sg22
V2014-09-13
p3416
sg24
(lp3417
(lp3418
VDulak, David
p3419
aVWin
p3420
aS''
aS''
aa(lp3421
VCompton, Brook
p3422
aVLoss
p3423
aS''
aS''
aa(lp3424
VNeville, James
p3425
aVLoss
p3426
aS''
aS''
aa(lp3427
VHaas, Mathew
p3428
aVWin
p3429
aS''
aS''
aa(lp3430
VLeszczynski, Joseph
p3431
aVLoss
p3432
aS''
aS''
aassV12-09-3679129
p3433
(dp3434
g4
I0
sg5
Nsg6
I3
sg7
S''
sg8
I2
sg9
V43
p3435
sg11
V17
p3436
sg13
VTaylorville, Illinois, United States
p3437
sg15
g96
sg17
g3433
sg18
VLegacy
p3438
sg20
I5
sg21
S''
sg22
V2012-09-01
p3439
sg24
(lp3440
(lp3441
VSchlepphorst, Mark
p3442
aVWin
p3443
aS''
aS''
aa(lp3444
VCiasto, Tony
p3445
aVLoss
p3446
aS''
aS''
aa(lp3447
VRiggin, Shawn
p3448
aVWin
p3449
aS''
aS''
aa(lp3450
VKletz, Michael
p3451
aVWin
p3452
aS''
aS''
aa(lp3453
VRasmussen, Jeff
p3454
aVLoss
p3455
aS''
aS''
aassV13-09-4610613
p3456
(dp3457
g4
I0
sg5
Nsg6
I2
sg7
S''
sg8
I1
sg9
V4
sg11
V2
sg13
VBloomington, Illinois, United States
p3458
sg15
g96
sg17
g3456
sg18
VCasual - Constructed
p3459
sg20
I3
sg21
S''
sg22
V2013-09-26
p3460
sg24
(lp3461
(lp3462
VNorton, Matt
p3463
aVLoss
p3464
aS''
aS''
aa(lp3465
VWoerner, Nick
p3466
aVWin
p3467
aS''
aS''
aa(lp3468
VPeterson, Jeremy
p3469
aVWin
p3470
aS''
aS''
aassV12-08-3521188
p3471
(dp3472
g4
I0
sg5
Nsg6
I3
sg7
S''
sg8
I1
sg9
V35
p3473
sg11
V6
sg13
VBloomington, Illinois, United States
p3474
sg15
VFriday Night Magic
p3475
sg17
g3471
sg18
VStandard
p3476
sg20
I4
sg21
S''
sg22
V2012-08-24
p3477
sg24
(lp3478
(lp3479
VMARION, ANDREW
p3480
aVWin
p3481
aS''
aS''
aa(lp3482
VHarris, Michael
p3483
aVWin
p3484
aS''
aS''
aa(lp3485
VWiltse, Joshua
p3486
aVLoss
p3487
aS''
aS''
aa(lp3488
VPeterson, Jeremy
p3489
aVWin
p3490
aS''
aS''
aassV11-09-2915920
p3491
(dp3492
g4
I0
sg5
Nsg6
I0
sg7
S''
sg8
I2
sg9
V41
p3493
sg11
V37
p3494
sg13
VBloomington, Illinois, United States
p3495
sg15
VMagic Prerelease
p3496
sg17
g3491
sg18
VSealed
p3497
sg20
I2
sg21
S''
sg22
V2011-09-25
p3498
sg24
(lp3499
(lp3500
VO'Neal, Paul
p3501
aVLoss
p3502
aS''
aS''
aa(lp3503
VCline, Kevin
p3504
aVLoss
p3505
aS''
aS''
aassV14-01-4679268
p3506
(dp3507
g4
I1
sg5
Nsg6
I6
sg7
S''
sg8
I2
sg9
V256
p3508
sg11
V25
p3509
sg13
VIndianapolis, Indiana, United States
p3510
sg15
VMagic WPN Premium Tournament
p3511
sg17
g3506
sg18
VLegacy
p3512
sg20
I9
sg21
S''
sg22
V2014-01-05
p3513
sg24
(lp3514
(lp3515
VGrant, Brad
p3516
aVWin
p3517
aS''
aS''
aa(lp3518
VBurton, Brandon
p3519
aVLoss
p3520
aS''
aS''
aa(lp3521
VKosmel, Kyle
p3522
aVWin
p3523
aS''
aS''
aa(lp3524
VMcLeod, Tom
p3525
aVWin
p3526
aS''
aS''
aa(lp3527
VSrednoselac, Kevin
p3528
aVWin
p3529
aS''
aS''
aa(lp3530
VSong, Edward
p3531
aVWin
p3532
aS''
aS''
aa(lp3533
VLadouceur, Travis
p3534
aVWin
p3535
aS''
aS''
aa(lp3536
VTragos, Peter
p3537
aVLoss
p3538
aS''
aS''
aa(lp3539
VMollenkopf, Tyler
p3540
aVDraw
p3541
aS''
aS''
aassV13-08-4253289
p3542
(dp3543
g4
I0
sg5
Nsg6
I1
sg7
S''
sg8
I4
sg9
V406
p3544
sg11
V334
p3545
sg13
VCleveland, Ohio, United States
p3546
sg15
VMagic WPN Premium Tournament
p3547
sg17
g3542
sg18
VStandard
p3548
sg20
I5
sg21
S''
sg22
V2013-10-05
p3549
sg24
(lp3550
(lp3551
VLarrick, Timothy
p3552
aVWin
p3553
aS''
aS''
aa(lp3554
VEier, Brad
p3555
aVLoss
p3556
aS''
aS''
aa(lp3557
VCarson, Thomas
p3558
aVLoss
p3559
aS''
aS''
aa(lp3560
VKronenberger, Chris
p3561
aVLoss
p3562
aS''
aS''
aa(lp3563
VMertens, Tim
p3564
aVLoss
p3565
aS''
aS''
aassV14-09-5532308
p3566
(dp3567
g4
I0
sg5
Nsg6
I1
sg7
S''
sg8
I3
sg9
V36
p3568
sg11
V30
p3569
sg13
VLafayette, Indiana, United States
p3570
sg15
g96
sg17
g3566
sg18
VStandard
p3571
sg20
I4
sg21
S''
sg22
V2014-09-14
p3572
sg24
(lp3573
(lp3574
VBrackett, Brian
p3575
aVLoss
p3576
aS''
aS''
aa(lp3577
VBlatz, Sawyer
p3578
aVLoss
p3579
aS''
aS''
aa(lp3580
VNELSON, PATRICK
p3581
aVWin
p3582
aS''
aS''
aa(lp3583
VEdelman, Bruce
p3584
aVLoss
p3585
aS''
aS''
aassV13-01-3840247
p3586
(dp3587
g4
I0
sg5
Nsg6
I5
sg7
S''
sg8
I3
sg9
V156
p3588
sg11
V35
p3589
sg13
VSouth Bend, Indiana, United States
p3590
sg15
VMagic Pro Tour Qualifier
p3591
sg17
g3586
sg18
VModern
p3592
sg20
I8
sg21
S''
sg22
V2013-01-12
p3593
sg24
(lp3594
(lp3595
VBullington, Jay
p3596
aVWin
p3597
aS''
aS''
aa(lp3598
VBerrios, Stephen
p3599
aVLoss
p3600
aS''
aS''
aa(lp3601
VCroy, Andrew
p3602
aVWin
p3603
aS''
aS''
aa(lp3604
VBUSCH, ANDREW
p3605
aVLoss
p3606
aS''
aS''
aa(lp3607
VPerez Jr., Raymond
p3608
aVWin
p3609
aS''
aS''
aa(lp3610
VRozenblit, Alan
p3611
aVWin
p3612
aS''
aS''
aa(lp3613
VGeorge, Timothy
p3614
aVLoss
p3615
aS''
aS''
aa(lp3616
VBohn, Jonathan
p3617
aVWin
p3618
aS''
aS''
aassV11-03-2742689
p3619
(dp3620
g4
I0
sg5
Nsg6
I2
sg7
S''
sg8
I2
sg9
V16
p3621
sg11
V8
sg13
VOak Lawn, Illinois, United States
p3622
sg15
g96
sg17
g3619
sg18
VStandard
p3623
sg20
I4
sg21
S''
sg22
V2011-03-11
p3624
sg24
(lp3625
(lp3626
VHardt, Dustin
p3627
aVWin
p3628
aS''
aS''
aa(lp3629
VMatteson, Dan
p3630
aVWin
p3631
aS''
aS''
aa(lp3632
VWHITNEY, SEAN
p3633
aVLoss
p3634
aS''
aS''
aa(lp3635
VFrausto, Andrew j
p3636
aVLoss
p3637
aS''
aS''
aassV11-10-3014350
p3638
(dp3639
g4
I0
sg5
Nsg6
I4
sg7
S''
sg8
I2
sg9
V36
p3640
sg11
V7
sg13
VBloomington, Illinois, United States
p3641
sg15
g96
sg17
g3638
sg18
VStandard
p3642
sg20
I6
sg21
S''
sg22
V2011-10-08
p3643
sg24
(lp3644
(lp3645
VNyberg, Michael
p3646
aVWin
p3647
aS''
aS''
aa(lp3648
VSchaefer, Josh D
p3649
aVWin
p3650
aS''
aS''
aa(lp3651
VPoirier, Marc D
p3652
aVWin
p3653
aS''
aS''
aa(lp3654
VTIPPETT, JASON
p3655
aVLoss
p3656
aS''
aS''
aa(lp3657
VFriel, Robert
p3658
aVWin
p3659
aS''
aS''
aa(lp3660
VTomek, Mark
p3661
aVLoss
p3662
aS''
aS''
aassV12-12-3750729
p3663
(dp3664
g4
I2
sg5
Nsg6
I8
sg7
S''
sg8
I1
sg9
V326
p3665
sg11
V3
sg13
VIndianapolis, Indiana, United States
p3666
sg15
VMagic WPN Premium Tournament
p3667
sg17
g3663
sg18
VLegacy
p3668
sg20
I11
sg21
S''
sg22
V2013-03-10
p3669
sg24
(lp3670
(lp3671
Vreed, tyler
p3672
aVWin
p3673
aS''
aS''
aa(lp3674
VProsak, Adam
p3675
aVWin
p3676
aS''
aS''
aa(lp3677
VTenjum, Andrew
p3678
aVWin
p3679
aS''
aS''
aa(lp3680
VKrause, Joseph
p3681
aVWin
p3682
aS''
aS''
aa(lp3683
VHefner, Jessy
p3684
aVWin
p3685
aS''
aS''
aa(lp3686
VBinek, Alex
p3687
aVWin
p3688
aS''
aS''
aa(lp3689
Vcurran, Riley
p3690
aVWin
p3691
aS''
aS''
aa(lp3692
VHartman, Reed
p3693
aVDraw
p3694
aS''
aS''
aa(lp3695
VNEELEY, DAN
p3696
aVDraw
p3697
aS''
aS''
aa(lp3698
VNEELEY, DAN
p3699
aVWin
p3700
aS''
aS''
aa(lp3701
VBinek, Alex
p3702
aVLoss
p3703
aS''
aS''
aassV13-07-4405449
p3704
(dp3705
g4
I0
sg5
Nsg6
I3
sg7
S''
sg8
I1
sg9
V10
p3706
sg11
V3
sg13
VBloomington, Illinois, United States
p3707
sg15
g96
sg17
g3704
sg18
VCasual - Constructed
p3708
sg20
I4
sg21
S''
sg22
V2013-07-10
p3709
sg24
(lp3710
(lp3711
VSchaefer, Josh
p3712
aVLoss
p3713
aS''
aS''
aa(lp3714
VHOLT, ZACK
p3715
aVWin
p3716
aS''
aS''
aa(lp3717
VYONKE, TYLER
p3718
aVWin
p3719
aS''
aS''
aa(lp3720
VPeterson, Jeremy
p3721
aVWin
p3722
aS''
aS''
aassV12-03-3224715
p3723
(dp3724
g4
I0
sg5
Nsg6
I2
sg7
S''
sg8
I2
sg9
V29
p3725
sg11
V12
p3726
sg13
VBloomington, Illinois, United States
p3727
sg15
VFriday Night Magic
p3728
sg17
g3723
sg18
VStandard
p3729
sg20
I4
sg21
S''
sg22
V2012-03-23
p3730
sg24
(lp3731
(lp3732
VBrown, Robert
p3733
aVWin
p3734
aS''
aS''
aa(lp3735
VLamb, Matt
p3736
aVWin
p3737
aS''
aS''
aa(lp3738
VThoman, Eric S
p3739
aVLoss
p3740
aS''
aS''
aa(lp3741
VKletz, Michael
p3742
aVLoss
p3743
aS''
aS''
aassV14-04-4910097
p3744
(dp3745
g4
I1
sg5
Nsg6
I1
sg7
S''
sg8
I3
sg9
V346
p3746
sg11
V260
p3747
sg13
VIndianapolis, Indiana, United States
p3748
sg15
VMagic WPN Premium Tournament
p3749
sg17
g3744
sg18
VLegacy
p3750
sg20
I5
sg21
S''
sg22
V2014-06-01
p3751
sg24
(lp3752
(lp3753
VBernal, Joe
p3754
aVDraw
p3755
aS''
aS''
aa(lp3756
VJohnson, Peter
p3757
aVLoss
p3758
aS''
aS''
aa(lp3759
Vdurham, aaron
p3760
aVLoss
p3761
aS''
aS''
aa(lp3762
VFinney, Matthew
p3763
aVWin
p3764
aS''
aS''
aa(lp3765
VCooper, Brian
p3766
aVLoss
p3767
aS''
aS''
aassV12-08-3440651
p3768
(dp3769
g4
I0
sg5
Nsg6
I5
sg7
S''
sg8
I3
sg9
V162
p3770
sg11
V46
p3771
sg13
VCollinsville, Illinois, United States
p3772
sg15
VMagic WPN Premium Tournament
p3773
sg17
g3768
sg18
VLegacy
p3774
sg20
I8
sg21
S''
sg22
V2012-11-04
p3775
sg24
(lp3776
(lp3777
VCastillo, Marc
p3778
aVLoss
p3779
aS''
aS''
aa(lp3780
VJONES, MATTHEW
p3781
aVWin
p3782
aS''
aS''
aa(lp3783
VKletz, Michael
p3784
aVLoss
p3785
aS''
aS''
aa(lp3786
VSandomierski, Nathan
p3787
aVWin
p3788
aS''
aS''
aa(lp3789
VALLARD, JASON
p3790
aVLoss
p3791
aS''
aS''
aa(lp3792
VHowe, Jason
p3793
aVWin
p3794
aS''
aS''
aa(lp3795
Vwilson, james
p3796
aVWin
p3797
aS''
aS''
aa(lp3798
VHuang, Kevin
p3799
aVWin
p3800
aS''
aS''
aassV13-08-4476203
p3801
(dp3802
g4
I0
sg5
Nsg6
I7
sg7
S''
sg8
I2
sg9
V270
p3803
sg11
V18
p3804
sg13
VNiles, Illinois, United States
p3805
sg15
g96
sg17
g3801
sg18
VStandard
p3806
sg20
I9
sg21
S''
sg22
V2013-08-03
p3807
sg24
(lp3808
(lp3809
VRipper, Matt
p3810
aVLoss
p3811
aS''
aS''
aa(lp3812
VOlmsted, Eric
p3813
aVWin
p3814
aS''
aS''
aa(lp3815
VDuan, Daniel
p3816
aVWin
p3817
aS''
aS''
aa(lp3818
VAdapon, Antonio
p3819
aVWin
p3820
aS''
aS''
aa(lp3821
VSchmidt, Ryan
p3822
aVWin
p3823
aS''
aS''
aa(lp3824
VCampbell, Erin
p3825
aVWin
p3826
aS''
aS''
aa(lp3827
VBush, James
p3828
aVWin
p3829
aS''
aS''
aa(lp3830
VNyberg, Michael
p3831
aVLoss
p3832
aS''
aS''
aa(lp3833
VSpartz, Gaby
p3834
aVWin
p3835
aS''
aS''
aassV12-07-3426218
p3836
(dp3837
g4
I0
sg5
Nsg6
I0
sg7
S''
sg8
I2
sg9
V39
p3838
sg11
V36
p3839
sg13
VBloomington, Illinois, United States
p3840
sg15
VMagic Prerelease
p3841
sg17
g3836
sg18
VSealed
p3842
sg20
I2
sg21
S''
sg22
V2012-07-07
p3843
sg24
(lp3844
(lp3845
VWatts, Zach
p3846
aVLoss
p3847
aS''
aS''
aa(lp3848
VMargewich, Glenn
p3849
aVLoss
p3850
aS''
aS''
aassV12-12-3750726
p3851
(dp3852
g4
I0
sg5
Nsg6
I8
sg7
S''
sg8
I3
sg9
V775
p3853
sg11
V57
p3854
sg13
VIndianapolis, Indiana, United States
p3855
sg15
VMagic WPN Premium Tournament
p3856
sg17
g3851
sg18
VStandard
p3857
sg20
I11
sg21
S''
sg22
V2013-03-09
p3858
sg24
(lp3859
(lp3860
VMeng, Lu Qiao
p3861
aVWin
p3862
aS''
aS''
aa(lp3863
VLiming, Austin
p3864
aVWin
p3865
aS''
aS''
aa(lp3866
VTerry, Jason
p3867
aVLoss
p3868
aS''
aS''
aa(lp3869
VMartinez, Carlos
p3870
aVLoss
p3871
aS''
aS''
aa(lp3872
VCarroll, Jacob
p3873
aVWin
p3874
aS''
aS''
aa(lp3875
VBoomer, Christopher
p3876
aVLoss
p3877
aS''
aS''
aa(lp3878
VErrs, Ta
p3879
aVWin
p3880
aS''
aS''
aa(lp3881
VBunnell, Scott
p3882
aVWin
p3883
aS''
aS''
aa(lp3884
VKoepke, Devin
p3885
aVWin
p3886
aS''
aS''
aa(lp3887
VBehrens, Lance
p3888
aVWin
p3889
aS''
aS''
aa(lp3890
VCravens, Josh
p3891
aVWin
p3892
aS''
aS''
aassV13-03-3964111
p3893
(dp3894
g4
I0
sg5
Nsg6
I2
sg7
S''
sg8
I4
sg9
V190
p3895
sg11
V124
p3896
sg13
VKansas City, Missouri, United States
p3897
sg15
VMagic WPN Premium Tournament
p3898
sg17
g3893
sg18
VLegacy
p3899
sg20
I6
sg21
S''
sg22
V2013-03-24
p3900
sg24
(lp3901
(lp3902
VJohnson, Cody
p3903
aVWin
p3904
aS''
aS''
aa(lp3905
VVan Conett, Christopher
p3906
aVWin
p3907
aS''
aS''
aa(lp3908
VKoepke, Devin
p3909
aVLoss
p3910
aS''
aS''
aa(lp3911
VMarriott, Nicholas
p3912
aVLoss
p3913
aS''
aS''
aa(lp3914
VGolliher, Jason
p3915
aVLoss
p3916
aS''
aS''
aa(lp3917
VBeal, Rodney
p3918
aVLoss
p3919
aS''
aS''
aassV14-01-4872465
p3920
(dp3921
g4
I1
sg5
Nsg6
I3
sg7
S''
sg8
I1
sg9
V17
p3922
sg11
V5
sg13
VIndianapolis, Indiana, United States
p3923
sg15
g96
sg17
g3920
sg18
VLegacy
p3924
sg20
I5
sg21
S''
sg22
V2014-01-06
p3925
sg24
(lp3926
(lp3927
VGregory, Christopher
p3928
aVWin
p3929
aS''
aS''
aa(lp3930
VBinek, Alex
p3931
aVLoss
p3932
aS''
aS''
aa(lp3933
VCampbell, Bryan
p3934
aVDraw
p3935
aS''
aS''
aa(lp3936
VEricksen, Luke
p3937
aVWin
p3938
aS''
aS''
aa(lp3939
Vmoscatel, matt
p3940
aVWin
p3941
aS''
aS''
aassV12-12-3750641
p3942
(dp3943
g4
I0
sg5
Nsg6
I6
sg7
S''
sg8
I3
sg9
V325
p3944
sg11
V60
p3945
sg13
VColumbus, Ohio, United States
p3946
sg15
VMagic WPN Premium Tournament
p3947
sg17
g3942
sg18
VLegacy
p3948
sg20
I9
sg21
S''
sg22
V2013-01-06
p3949
sg24
(lp3950
(lp3951
VGerhart, Ryan
p3952
aVLoss
p3953
aS''
aS''
aa(lp3954
VRumski, Zac
p3955
aVWin
p3956
aS''
aS''
aa(lp3957
VGenzman, Thomas
p3958
aVWin
p3959
aS''
aS''
aa(lp3960
VCotton, Brian
p3961
aVLoss
p3962
aS''
aS''
aa(lp3963
VLoos, Chris
p3964
aVWin
p3965
aS''
aS''
aa(lp3966
VVickers, Adam
p3967
aVWin
p3968
aS''
aS''
aa(lp3969
VColeman, Jason
p3970
aVWin
p3971
aS''
aS''
aa(lp3972
VMilliken, Joshua
p3973
aVLoss
p3974
aS''
aS''
aa(lp3975
VPendleton, Coy
p3976
aVWin
p3977
aS''
aS''
aassV14-11-5805171
p3978
(dp3979
g4
I0
sg5
Nsg6
I6
sg7
V
sg8
I3
sg9
V34
p3980
sg11
V2
sg13
VNiles, Illinois, United States
p3981
sg15
VOther
p3982
sg17
g3978
sg18
VLegacy
p3983
sg20
I9
sg21
VDeath and Taxes
p3984
sg22
V2014-11-15
p3985
sg24
(lp3986
(lp3987
VSteffes, Brett
p3988
aVWin
p3989
aS''
aS''
aa(lp3990
VGregory, Christopher
p3991
aVLoss
p3992
aS''
aS''
aa(lp3993
VBrickman, Justin
p3994
aVWin
p3995
aS''
aS''
aa(lp3996
VDow, Matt
p3997
aVLoss
p3998
aS''
aS''
aa(lp3999
VMORRIS, KEITH
p4000
aVWin
p4001
aS''
aS''
aa(lp4002
VZinni, Anthony
p4003
aVWin
p4004
aS''
aS''
aa(lp4005
VCARVER, SPENCER
p4006
aVWin
p4007
aS''
aS''
aa(lp4008
VDow, Matt
p4009
aVWin
p4010
aS''
aS''
aa(lp4011
VGregory, Christopher
p4012
aVLoss
p4013
aS''
aS''
aassV11-12-2903026
p4014
(dp4015
g4
I1
sg5
Nsg6
I1
sg7
S''
sg8
I3
sg9
V555
p4016
sg11
V423
p4017
sg13
VCollinsville, Illinois, United States
p4018
sg15
VMagic WPN Premium Tournament
p4019
sg17
g4014
sg18
VStandard
p4020
sg20
I5
sg21
S''
sg22
V2011-12-03
p4021
sg24
(lp4022
(lp4023
VCooper, Brian
p4024
aVDraw
p4025
aS''
aS''
aa(lp4026
VSmith, Robert L
p4027
aVWin
p4028
aS''
aS''
aa(lp4029
VSaylor, David
p4030
aVLoss
p4031
aS''
aS''
aa(lp4032
VSherman, Chris
p4033
aVLoss
p4034
aS''
aS''
aa(lp4035
VKoch, Jeremy
p4036
aVLoss
p4037
aS''
aS''
aassV12-04-3275152
p4038
(dp4039
g4
I0
sg5
Nsg6
I3
sg7
S''
sg8
I1
sg9
V50
p4040
sg11
V4
sg13
VBloomington, Illinois, United States
p4041
sg15
VMagic Prerelease
p4042
sg17
g4038
sg18
VSealed
p4043
sg20
I4
sg21
S''
sg22
V2012-04-28
p4044
sg24
(lp4045
(lp4046
VYONKE, TYLER
p4047
aVWin
p4048
aS''
aS''
aa(lp4049
VKinkade, Eben S
p4050
aVWin
p4051
aS''
aS''
aa(lp4052
VHolzworth, Justin
p4053
aVWin
p4054
aS''
aS''
aa(lp4055
VTIPPETT, JASON
p4056
aVLoss
p4057
aS''
aS''
aassV13-04-3964120
p4058
(dp4059
g4
I2
sg5
Nsg6
I8
sg7
S''
sg8
I1
sg9
V321
p4060
sg11
V3
sg13
VDuluth, Georgia, United States
p4061
sg15
VMagic WPN Premium Tournament
p4062
sg17
g4058
sg18
VLegacy
p4063
sg20
I11
sg21
S''
sg22
V2013-04-07
p4064
sg24
(lp4065
(lp4066
VVanMeter, Chris
p4067
aVWin
p4068
aS''
aS''
aa(lp4069
VBundens, Justin
p4070
aVWin
p4071
aS''
aS''
aa(lp4072
VMarshall, Chris
p4073
aVWin
p4074
aS''
aS''
aa(lp4075
VTyree, Zach
p4076
aVWin
p4077
aS''
aS''
aa(lp4078
VGlantzman, Joshua
p4079
aVWin
p4080
aS''
aS''
aa(lp4081
VRemelt, Shane
p4082
aVWin
p4083
aS''
aS''
aa(lp4084
VTietze, Max
p4085
aVWin
p4086
aS''
aS''
aa(lp4087
VMinard, Darin
p4088
aVDraw
p4089
aS''
aS''
aa(lp4090
VPERSON, JOHN
p4091
aVDraw
p4092
aS''
aS''
aa(lp4093
VMitchell, Greg
p4094
aVWin
p4095
aS''
aS''
aa(lp4096
VPearson, William
p4097
aVLoss
p4098
aS''
aS''
aassV13-08-4372956
p4099
(dp4100
g4
I0
sg5
Nsg6
I2
sg7
S''
sg8
I2
sg9
V86
p4101
sg11
V30
p4102
sg13
VRoanoke, Virginia, United States
p4103
sg15
g96
sg17
g4099
sg18
VLegacy
p4104
sg20
I4
sg21
S''
sg22
V2013-08-31
p4105
sg24
(lp4106
(lp4107
Vhoffman, scott
p4108
aVWin
p4109
aS''
aS''
aa(lp4110
VConley, Bob
p4111
aVLoss
p4112
aS''
aS''
aa(lp4113
VLamas, Robby
p4114
aVWin
p4115
aS''
aS''
aa(lp4116
VSmith, Michael
p4117
aVLoss
p4118
aS''
aS''
aassV12-08-3440647
p4119
(dp4120
g4
I0
sg5
Nsg6
I5
sg7
S''
sg8
I4
sg9
V395
p4121
sg11
V100
p4122
sg13
VCollinsville, Illinois, United States
p4123
sg15
VMagic WPN Premium Tournament
p4124
sg17
g4119
sg18
VStandard
p4125
sg20
I9
sg21
S''
sg22
V2012-11-03
p4126
sg24
(lp4127
(lp4128
VGruver, Billy
p4129
aVWin
p4130
aS''
aS''
aa(lp4131
VRagsdale, Kevin
p4132
aVWin
p4133
aS''
aS''
aa(lp4134
VHartman, Reed
p4135
aVLoss
p4136
aS''
aS''
aa(lp4137
VBeemer, Brian
p4138
aVLoss
p4139
aS''
aS''
aa(lp4140
VCaruso, Corado
p4141
aVWin
p4142
aS''
aS''
aa(lp4143
VTenjum, Andrew
p4144
aVWin
p4145
aS''
aS''
aa(lp4146
VKENWORTHY, JORDAN
p4147
aVLoss
p4148
aS''
aS''
aa(lp4149
VRatchford, Cody
p4150
aVWin
p4151
aS''
aS''
aa(lp4152
VAge, Korey
p4153
aVLoss
p4154
aS''
aS''
aassV13-07-4418656
p4155
(dp4156
g4
I0
sg5
Nsg6
I4
sg7
S''
sg8
I0
sg9
V10
p4157
sg11
V1
sg13
VBloomington, Illinois, United States
p4158
sg15
g96
sg17
g4155
sg18
VCasual - Constructed
p4159
sg20
I4
sg21
S''
sg22
V2013-07-15
p4160
sg24
(lp4161
(lp4162
VMARION, ANDREW
p4163
aVWin
p4164
aS''
aS''
aa(lp4165
VLenz, Jon
p4166
aVWin
p4167
aS''
aS''
aa(lp4168
VProchaska, Anthony
p4169
aVWin
p4170
aS''
aS''
aa(lp4171
VKnollenberg, Doug
p4172
aVWin
p4173
aS''
aS''
aassV11-12-3086149
p4174
(dp4175
g4
I1
sg5
Nsg6
I3
sg7
S''
sg8
I0
sg9
V29
p4176
sg11
V2
sg13
VBloomington, Illinois, United States
p4177
sg15
VFriday Night Magic
p4178
sg17
g4174
sg18
VStandard
p4179
sg20
I4
sg21
S''
sg22
V2011-12-09
p4180
sg24
(lp4181
(lp4182
VBERGSTROM, ERIK
p4183
aVWin
p4184
aS''
aS''
aa(lp4185
VPowell, Jonathon
p4186
aVWin
p4187
aS''
aS''
aa(lp4188
VThoman, Eric S
p4189
aVDraw
p4190
aS''
aS''
aa(lp4191
VCaliff, James
p4192
aVWin
p4193
aS''
aS''
aassV13-04-3964129
p4194
(dp4195
g4
I1
sg5
Nsg6
I5
sg7
S''
sg8
I2
sg9
V201
p4196
sg11
V19
p4197
sg13
VNashville, Tennessee, United States
p4198
sg15
VMagic WPN Premium Tournament
p4199
sg17
g4194
sg18
VLegacy
p4200
sg20
I8
sg21
S''
sg22
V2013-05-19
p4201
sg24
(lp4202
(lp4203
VROBAR, BRYAN
p4204
aVWin
p4205
aS''
aS''
aa(lp4206
VGonzalez, Alex
p4207
aVWin
p4208
aS''
aS''
aa(lp4209
VSnyder, Jeramy
p4210
aVWin
p4211
aS''
aS''
aa(lp4212
VJanssen, Jon
p4213
aVWin
p4214
aS''
aS''
aa(lp4215
VSweeny, Cody
p4216
aVWin
p4217
aS''
aS''
aa(lp4218
VProsak, Adam
p4219
aVLoss
p4220
aS''
aS''
aa(lp4221
VHerrera, Joseph
p4222
aVLoss
p4223
aS''
aS''
aa(lp4224
VAshe, James
p4225
aVDraw
p4226
aS''
aS''
aassV11-04-2801078
p4227
(dp4228
g4
I0
sg5
Nsg6
I3
sg7
S''
sg8
I2
sg9
V17
p4229
sg11
V9
sg13
VOak Lawn, Illinois, United States
p4230
sg15
g96
sg17
g4227
sg18
VStandard
p4231
sg20
I5
sg21
S''
sg22
V2011-04-22
p4232
sg24
(lp4233
(lp4234
VMatteson, Ryan
p4235
aVWin
p4236
aS''
aS''
aa(lp4237
Vevans, jeremy
p4238
aVLoss
p4239
aS''
aS''
aa(lp4240
VDoran, Gregory
p4241
aVWin
p4242
aS''
aS''
aa(lp4243
VBednarz, C.j.
p4244
aVWin
p4245
aS''
aS''
aa(lp4246
VMcCarron, Richard
p4247
aVLoss
p4248
aS''
aS''
aassV13-04-3964127
p4249
(dp4250
g4
I1
sg5
Nsg6
I7
sg7
S''
sg8
I2
sg9
V453
p4251
sg11
V21
p4252
sg13
VNashville, Tennessee, United States
p4253
sg15
VMagic WPN Premium Tournament
p4254
sg17
g4249
sg18
VStandard
p4255
sg20
I10
sg21
S''
sg22
V2013-05-18
p4256
sg24
(lp4257
(lp4258
VAllen, Evan
p4259
aVWin
p4260
aS''
aS''
aa(lp4261
VHAMILTON, TIMOTHY
p4262
aVWin
p4263
aS''
aS''
aa(lp4264
VNoah, Shawn
p4265
aVWin
p4266
aS''
aS''
aa(lp4267
VPage, Daniel
p4268
aVWin
p4269
aS''
aS''
aa(lp4270
VFerrell, Dc
p4271
aVWin
p4272
aS''
aS''
aa(lp4273
VWienburg, Ben
p4274
aVLoss
p4275
aS''
aS''
aa(lp4276
VDickey, Chris
p4277
aVWin
p4278
aS''
aS''
aa(lp4279
VZacharyasz, Marc
p4280
aVWin
p4281
aS''
aS''
aa(lp4282
VRaczka, David
p4283
aVLoss
p4284
aS''
aS''
aa(lp4285
VBurden, Andy
p4286
aVDraw
p4287
aS''
aS''
aassV14-01-4679277
p4288
(dp4289
g4
I0
sg5
Nsg6
I7
sg7
S''
sg8
I3
sg9
V688
p4290
sg11
V82
p4291
sg13
VColumbus, Ohio, United States
p4292
sg15
VMagic WPN Premium Tournament
p4293
sg17
g4288
sg18
VStandard
p4294
sg20
I10
sg21
S''
sg22
V2014-01-18
p4295
sg24
(lp4296
(lp4297
VFaulk, Caleb
p4298
aVLoss
p4299
aS''
aS''
aa(lp4300
VRing, Reuben
p4301
aVWin
p4302
aS''
aS''
aa(lp4303
VWise, Donnie
p4304
aVWin
p4305
aS''
aS''
aa(lp4306
Vparks, jon
p4307
aVWin
p4308
aS''
aS''
aa(lp4309
VVincent, Michael
p4310
aVWin
p4311
aS''
aS''
aa(lp4312
VGrant, Brad
p4313
aVLoss
p4314
aS''
aS''
aa(lp4315
VBajer, Dylan
p4316
aVWin
p4317
aS''
aS''
aa(lp4318
VSCOTT, RILEY
p4319
aVWin
p4320
aS''
aS''
aa(lp4321
VGrant, Taylor
p4322
aVWin
p4323
aS''
aS''
aa(lp4324
VGrogg, Chase
p4325
aVLoss
p4326
aS''
aS''
aassV13-08-4253293
p4327
(dp4328
g4
I0
sg5
Nsg6
I6
sg7
S''
sg8
I4
sg9
V441
p4329
sg11
V92
p4330
sg13
VMilwaukee, Wisconsin, United States
p4331
sg15
VMagic WPN Premium Tournament
p4332
sg17
g4327
sg18
VStandard
p4333
sg20
I10
sg21
S''
sg22
V2013-10-12
p4334
sg24
(lp4335
(lp4336
VKrenik, Alex
p4337
aVWin
p4338
aS''
aS''
aa(lp4339
VEckstein, Kevin
p4340
aVWin
p4341
aS''
aS''
aa(lp4342
VEstrada, Caleb
p4343
aVLoss
p4344
aS''
aS''
aa(lp4345
VBridges, Alex
p4346
aVLoss
p4347
aS''
aS''
aa(lp4348
VFREER, CODY
p4349
aVWin
p4350
aS''
aS''
aa(lp4351
VTimmis, Sam
p4352
aVWin
p4353
aS''
aS''
aa(lp4354
VNeberman, Mike
p4355
aVWin
p4356
aS''
aS''
aa(lp4357
Vcook, benjamin
p4358
aVWin
p4359
aS''
aS''
aa(lp4360
VDarnall, Mathew
p4361
aVLoss
p4362
aS''
aS''
aa(lp4363
VHovis, Ryan
p4364
aVLoss
p4365
aS''
aS''
aassV12-07-3460146
p4366
(dp4367
g4
I0
sg5
Nsg6
I3
sg7
S''
sg8
I1
sg9
V30
p4368
sg11
V9
sg13
VBloomington, Illinois, United States
p4369
sg15
VFriday Night Magic
p4370
sg17
g4366
sg18
VStandard
p4371
sg20
I4
sg21
S''
sg22
V2012-07-27
p4372
sg24
(lp4373
(lp4374
VSery, Cameron
p4375
aVLoss
p4376
aS''
aS''
aa(lp4377
VTENDICK, BROCK
p4378
aVWin
p4379
aS''
aS''
aa(lp4380
VKaufman, Cj
p4381
aVWin
p4382
aS''
aS''
aa(lp4383
VSoltwedel, Steven
p4384
aVWin
p4385
aS''
aS''
aassV13-07-3815801
p4386
(dp4387
g4
I1
sg5
Nsg6
I8
sg7
S''
sg8
I3
sg9
V958
p4388
sg11
V16
p4389
sg13
VOverland Park, Kansas, United States
p4390
sg15
VMagic Grand Prix
p4391
sg17
g4386
sg18
VModern
p4392
sg20
I12
sg21
S''
sg22
V2013-07-06
p4393
sg24
(lp4394
(lp4395
VPesch, Ryan
p4396
aVWin
p4397
aS''
aS''
aa(lp4398
VRiddell, Jonathan
p4399
aVWin
p4400
aS''
aS''
aa(lp4401
Vhorn, michael
p4402
aVWin
p4403
aS''
aS''
aa(lp4404
VAyers, Brandon
p4405
aVWin
p4406
aS''
aS''
aa(lp4407
VBerni, Roberto
p4408
aVLoss
p4409
aS''
aS''
aa(lp4410
VHunt, Matthias
p4411
aVWin
p4412
aS''
aS''
aa(lp4413
VOlson, Alex
p4414
aVLoss
p4415
aS''
aS''
aa(lp4416
VBruno, David
p4417
aVWin
p4418
aS''
aS''
aa(lp4419
VLytle, Tyler
p4420
aVLoss
p4421
aS''
aS''
aa(lp4422
VMcClenathan, Sean
p4423
aVWin
p4424
aS''
aS''
aa(lp4425
VPeppler, Kevin
p4426
aVWin
p4427
aS''
aS''
aa(lp4428
VWaymon, Larry
p4429
aVDraw
p4430
aS''
aS''
aassV13-07-4232522
p4431
(dp4432
g4
I0
sg5
Nsg6
I2
sg7
S''
sg8
I1
sg9
V18
p4433
sg11
V3
sg13
VBloomington, Illinois, United States
p4434
sg15
VFriday Night Magic
p4435
sg17
g4431
sg18
VStandard
p4436
sg20
I3
sg21
S''
sg22
V2013-07-12
p4437
sg24
(lp4438
(lp4439
VRasmussen, Jeff
p4440
aVLoss
p4441
aS''
aS''
aa(lp4442
VWiltse, Joshua
p4443
aVWin
p4444
aS''
aS''
aa(lp4445
VBaker, Dillon
p4446
aVWin
p4447
aS''
aS''
aassV14-01-4679278
p4448
(dp4449
g4
I0
sg5
Nsg6
I6
sg7
S''
sg8
I3
sg9
V342
p4450
sg11
V57
p4451
sg13
VColumbus, Ohio, United States
p4452
sg15
VMagic WPN Premium Tournament
p4453
sg17
g4448
sg18
VLegacy
p4454
sg20
I9
sg21
S''
sg22
V2014-01-19
p4455
sg24
(lp4456
(lp4457
VLinneman, Ryan
p4458
aVWin
p4459
aS''
aS''
aa(lp4460
VStroup, Jason
p4461
aVLoss
p4462
aS''
aS''
aa(lp4463
VPrice, Greg
p4464
aVWin
p4465
aS''
aS''
aa(lp4466
VHERSHBERGER, DAVID
p4467
aVWin
p4468
aS''
aS''
aa(lp4469
VANSBRO, MAX
p4470
aVLoss
p4471
aS''
aS''
aa(lp4472
VThornton, Geo
p4473
aVLoss
p4474
aS''
aS''
aa(lp4475
VAccord, Quentin
p4476
aVWin
p4477
aS''
aS''
aa(lp4478
VHipp, Ryan
p4479
aVWin
p4480
aS''
aS''
aa(lp4481
VShrout, Andrew
p4482
aVWin
p4483
aS''
aS''
aassV13-06-4370825
p4484
(dp4485
g4
I0
sg5
Nsg6
I3
sg7
S''
sg8
I0
sg9
V9
sg11
V1
sg13
VBloomington, Illinois, United States
p4486
sg15
g96
sg17
g4484
sg18
VCasual - Constructed
p4487
sg20
I3
sg21
S''
sg22
V2013-06-26
p4488
sg24
(lp4489
(lp4490
VMARION, ANDREW
p4491
aVWin
p4492
aS''
aS''
aa(lp4493
VYONKE, TYLER
p4494
aVWin
p4495
aS''
aS''
aa(lp4496
VHarris, Michael
p4497
aVWin
p4498
aS''
aS''
aassV11-03-2564982
p4499
(dp4500
g4
I0
sg5
Nsg6
I3
sg7
S''
sg8
I1
sg9
V10
p4501
sg11
V2
sg13
VOak Lawn, Illinois, United States
p4502
sg15
VMagic Game Day
p4503
sg17
g4499
sg18
VStandard
p4504
sg20
I4
sg21
S''
sg22
V2011-03-05
p4505
sg24
(lp4506
(lp4507
VWHITNEY, SEAN
p4508
aVLoss
p4509
aS''
aS''
aa(lp4510
VClausen, Lawrence
p4511
aVWin
p4512
aS''
aS''
aa(lp4513
VGoldie, Ronald
p4514
aVWin
p4515
aS''
aS''
aa(lp4516
VBurica, Matt
p4517
aVWin
p4518
aS''
aS''
aassV12-03-3076565
p4519
(dp4520
g4
I0
sg5
Nsg6
I5
sg7
S''
sg8
I3
sg9
V1214
p4521
sg11
V220
p4522
sg13
VIndianapolis, Indiana, United States
p4523
sg15
VMagic Grand Prix
p4524
sg17
g4519
sg18
VLegacy
p4525
sg20
I8
sg21
S''
sg22
V2012-03-10
p4526
sg24
(lp4527
(lp4528
VHiser, Andrew
p4529
aVWin
p4530
aS''
aS''
aa(lp4531
VPatchett, John
p4532
aVWin
p4533
aS''
aS''
aa(lp4534
VMartin, Steven
p4535
aVLoss
p4536
aS''
aS''
aa(lp4537
VCoon, Robert L
p4538
aVWin
p4539
aS''
aS''
aa(lp4540
VEstrada, Caleb
p4541
aVWin
p4542
aS''
aS''
aa(lp4543
VSacher, Adrian
p4544
aVLoss
p4545
aS''
aS''
aa(lp4546
VMckinney, Dale w
p4547
aVWin
p4548
aS''
aS''
aa(lp4549
VToyota, Shimpei
p4550
aVLoss
p4551
aS''
aS''
aassV11-10-3050684
p4552
(dp4553
g4
I0
sg5
Nsg6
I0
sg7
S''
sg8
I0
sg9
V14
p4554
sg11
V1
sg13
VBloomington, Illinois, United States
p4555
sg15
g96
sg17
g4552
sg18
V2 HG Sealed
p4556
sg20
I0
sg21
S''
sg22
V2011-10-02
p4557
sg24
(lp4558
ssV12-02-3101646
p4559
(dp4560
g4
I1
sg5
Nsg6
I3
sg7
S''
sg8
I2
sg9
V32
p4561
sg11
V7
sg13
VBloomington, Illinois, United States
p4562
sg15
VMagic Game Day
p4563
sg17
g4559
sg18
VStandard
p4564
sg20
I6
sg21
S''
sg22
V2012-02-25
p4565
sg24
(lp4566
(lp4567
VSoltwedel, Steven
p4568
aVWin
p4569
aS''
aS''
aa(lp4570
VBaker, Mark
p4571
aVWin
p4572
aS''
aS''
aa(lp4573
VLamar, Loren
p4574
aVLoss
p4575
aS''
aS''
aa(lp4576
VLindblom, Stephen
p4577
aVWin
p4578
aS''
aS''
aa(lp4579
VKinkade, Tera
p4580
aVDraw
p4581
aS''
aS''
aa(lp4582
VBodenbach, Ken
p4583
aVLoss
p4584
aS''
aS''
aassV14-04-4910080
p4585
(dp4586
g4
I0
sg5
Nsg6
I3
sg7
S''
sg8
I4
sg9
V218
p4587
sg11
V131
p4588
sg13
VKnoxville, Tennessee, United States
p4589
sg15
VMagic WPN Premium Tournament
p4590
sg17
g4585
sg18
VLegacy
p4591
sg20
I7
sg21
S''
sg22
V2014-05-11
p4592
sg24
(lp4593
(lp4594
VTolbert, Douglas
p4595
aVLoss
p4596
aS''
aS''
aa(lp4597
VHowley, Luke
p4598
aVWin
p4599
aS''
aS''
aa(lp4600
VChristopher, Grant
p4601
aVWin
p4602
aS''
aS''
aa(lp4603
VAllen, Evan
p4604
aVLoss
p4605
aS''
aS''
aa(lp4606
VFlowers, Jim
p4607
aVWin
p4608
aS''
aS''
aa(lp4609
VKoch, Zachary
p4610
aVLoss
p4611
aS''
aS''
aa(lp4612
VClark, Christopher
p4613
aVLoss
p4614
aS''
aS''
aassV12-07-3605659
p4615
(dp4616
g4
I2
sg5
Nsg6
I3
sg7
S''
sg8
I1
sg9
V32
p4617
sg11
V6
sg13
VTaylorville, Illinois, United States
p4618
sg15
g96
sg17
g4615
sg18
VLegacy
p4619
sg20
I6
sg21
S''
sg22
V2012-07-28
p4620
sg24
(lp4621
(lp4622
VSchlepphorst, Steven
p4623
aVWin
p4624
aS''
aS''
aa(lp4625
VMorris, Luke
p4626
aVWin
p4627
aS''
aS''
aa(lp4628
VPeterson, Jeremy
p4629
aVDraw
p4630
aS''
aS''
aa(lp4631
VHendricks, Joshua
p4632
aVWin
p4633
aS''
aS''
aa(lp4634
VNorton, Matt
p4635
aVDraw
p4636
aS''
aS''
aa(lp4637
VNorton, Matt
p4638
aVLoss
p4639
aS''
aS''
aassV12-09-3574565
p4640
(dp4641
g4
I0
sg5
Nsg6
I2
sg7
S''
sg8
I1
sg9
V12
p4642
sg11
V5
sg13
VBloomington, Illinois, United States
p4643
sg15
VFriday Night Magic
p4644
sg17
g4640
sg18
VBooster Draft
p4645
sg20
I3
sg21
S''
sg22
V2012-09-28
p4646
sg24
(lp4647
(lp4648
VKletz, Michael
p4649
aVWin
p4650
aS''
aS''
aa(lp4651
VBodenbach, Ken
p4652
aVLoss
p4653
aS''
aS''
aa(lp4654
VLien, Seth
p4655
aVWin
p4656
aS''
aS''
aassV12-11-3375855
p4657
(dp4658
g4
I0
sg5
Nsg6
I8
sg7
S''
sg8
I5
sg9
V1116
p4659
sg11
V79
p4660
sg13
VChicago, Illinois, United States
p4661
sg15
VMagic Grand Prix
p4662
sg17
g4657
sg18
VModern
p4663
sg20
I13
sg21
S''
sg22
V2012-11-10
p4664
sg24
(lp4665
(lp4666
Vmacke, adam
p4667
aVWin
p4668
aS''
aS''
aa(lp4669
VBecvar, Nick
p4670
aVWin
p4671
aS''
aS''
aa(lp4672
VPetersen, Logan
p4673
aVWin
p4674
aS''
aS''
aa(lp4675
VMcDermott, Shane
p4676
aVLoss
p4677
aS''
aS''
aa(lp4678
VCampbell, Brad
p4679
aVWin
p4680
aS''
aS''
aa(lp4681
VGuillerm, Steve
p4682
aVLoss
p4683
aS''
aS''
aa(lp4684
VBearl, Ken
p4685
aVWin
p4686
aS''
aS''
aa(lp4687
VHayne, Alexander
p4688
aVLoss
p4689
aS''
aS''
aa(lp4690
VPeck, Donnie
p4691
aVLoss
p4692
aS''
aS''
aa(lp4693
VDurward, Caleb
p4694
aVWin
p4695
aS''
aS''
aa(lp4696
VWagener, Andrew
p4697
aVWin
p4698
aS''
aS''
aa(lp4699
VWest, Alexander
p4700
aVLoss
p4701
aS''
aS''
aa(lp4702
VTurtenwald, Owen
p4703
aVWin
p4704
aS''
aS''
aassV12-06-3525974
p4705
(dp4706
g4
I0
sg5
Nsg6
I3
sg7
S''
sg8
I3
sg9
V80
p4707
sg11
V44
p4708
sg13
VNiles, Illinois, United States
p4709
sg15
g96
sg17
g4705
sg18
VStandard
p4710
sg20
I6
sg21
S''
sg22
V2012-06-23
p4711
sg24
(lp4712
(lp4713
VMendez, Juan
p4714
aVLoss
p4715
aS''
aS''
aa(lp4716
VKanthak, Justin
p4717
aVWin
p4718
aS''
aS''
aa(lp4719
VCastillo, Marc
p4720
aVLoss
p4721
aS''
aS''
aa(lp4722
VAthey, Thomas
p4723
aVWin
p4724
aS''
aS''
aa(lp4725
VYang, Timothy
p4726
aVWin
p4727
aS''
aS''
aa(lp4728
VFung, Felix
p4729
aVLoss
p4730
aS''
aS''
aassV12-09-3541635
p4731
(dp4732
g4
I0
sg5
Nsg6
I2
sg7
S''
sg8
I1
sg9
V40
p4733
sg11
V7
sg13
VBloomington, Illinois, United States
p4734
sg15
g96
sg17
g4731
sg18
VCasual - Limited
p4735
sg20
I3
sg21
S''
sg22
V2012-09-08
p4736
sg24
(lp4737
(lp4738
Vjones, brian
p4739
aVWin
p4740
aS''
aS''
aa(lp4741
VWoerner, Nick
p4742
aVWin
p4743
aS''
aS''
aa(lp4744
VFonseca, Steve
p4745
aVLoss
p4746
aS''
aS''
aassV13-04-3964117
p4747
(dp4748
g4
I0
sg5
Nsg6
I8
sg7
S''
sg8
I7
sg9
V283
p4749
sg11
V71
p4750
sg13
VDuluth, Georgia, United States
p4751
sg15
VMagic WPN Premium Tournament
p4752
sg17
g4747
sg18
VLegacy
p4753
sg20
I15
sg21
S''
sg22
V2013-04-05
p4754
sg24
(lp4755
(lp4756
VLynch, Paul
p4757
aVWin
p4758
aS''
aS''
aa(lp4759
VHeath, Ben
p4760
aVLoss
p4761
aS''
aS''
aa(lp4762
VGoldstein, Danny
p4763
aVWin
p4764
aS''
aS''
aa(lp4765
VCordell, Robbie
p4766
aVWin
p4767
aS''
aS''
aa(lp4768
VAnders, Chris
p4769
aVWin
p4770
aS''
aS''
aa(lp4771
VBedsole, Hayden
p4772
aVWin
p4773
aS''
aS''
aa(lp4774
VBass, Joe
p4775
aVWin
p4776
aS''
aS''
aa(lp4777
VHiroki, Kenta
p4778
aVWin
p4779
aS''
aS''
aa(lp4780
Va, a
p4781
aVLoss
p4782
aS''
aS''
aa(lp4783
VSamson, Daniel
p4784
aVLoss
p4785
aS''
aS''
aa(lp4786
VBernal, Joe
p4787
aVLoss
p4788
aS''
aS''
aa(lp4789
VSnook, Adam
p4790
aVWin
p4791
aS''
aS''
aa(lp4792
VMusser, Dan
p4793
aVLoss
p4794
aS''
aS''
aa(lp4795
VShiels, Dave
p4796
aVLoss
p4797
aS''
aS''
aa(lp4798
VDarran, Jeff
p4799
aVLoss
p4800
aS''
aS''
aassV13-05-4057086
p4801
(dp4802
g4
I0
sg5
Nsg6
I7
sg7
S''
sg8
I2
sg9
V156
p4803
sg11
V5
sg13
VIndianapolis, Indiana, United States
p4804
sg15
VMagic Pro Tour Qualifier
p4805
sg17
g4801
sg18
VStandard
p4806
sg20
I9
sg21
S''
sg22
V2013-05-25
p4807
sg24
(lp4808
(lp4809
VMusser, Dan
p4810
aVLoss
p4811
aS''
aS''
aa(lp4812
VReeves, Jameson
p4813
aVWin
p4814
aS''
aS''
aa(lp4815
VZienta, Justin
p4816
aVWin
p4817
aS''
aS''
aa(lp4818
VLatif, Mehran
p4819
aVWin
p4820
aS''
aS''
aa(lp4821
VUnknown, Unknown
p4822
aVWin
p4823
aS''
aS''
aa(lp4824
VRaufeisen, Derek
p4825
aVWin
p4826
aS''
aS''
aa(lp4827
VHERMANN, ERIC
p4828
aVWin
p4829
aS''
aS''
aa(lp4830
VComminos, Bill
p4831
aVWin
p4832
aS''
aS''
aa(lp4833
VMorrow, Andrew
p4834
aVLoss
p4835
aS''
aS''
aassV13-07-4399434
p4836
(dp4837
g4
I0
sg5
Nsg6
I3
sg7
S''
sg8
I0
sg9
V7
sg11
V1
sg13
VBloomington, Illinois, United States
p4838
sg15
g96
sg17
g4836
sg18
VCasual - Constructed
p4839
sg20
I3
sg21
S''
sg22
V2013-07-08
p4840
sg24
(lp4841
(lp4842
VKnollenberg, Doug
p4843
aVWin
p4844
aS''
aS''
aa(lp4845
VKletz, Michael
p4846
aVWin
p4847
aS''
aS''
aa(lp4848
VLenz, Jon
p4849
aVWin
p4850
aS''
aS''
aassV13-05-4057084
p4851
(dp4852
g4
I0
sg5
Nsg6
I6
sg7
S''
sg8
I2
sg9
V211
p4853
sg11
V26
p4854
sg13
VVilla Park, Illinois, United States
p4855
sg15
VMagic Pro Tour Qualifier
p4856
sg17
g4851
sg18
VStandard
p4857
sg20
I8
sg21
S''
sg22
V2013-05-11
p4858
sg24
(lp4859
(lp4860
VLyons, Greg
p4861
aVLoss
p4862
aS''
aS''
aa(lp4863
Vcatardi, joey
p4864
aVLoss
p4865
aS''
aS''
aa(lp4866
VKEARLEY, MATT
p4867
aVWin
p4868
aS''
aS''
aa(lp4869
VPolo, Mark
p4870
aVWin
p4871
aS''
aS''
aa(lp4872
VKanthak, Justin
p4873
aVWin
p4874
aS''
aS''
aa(lp4875
VZell, Susan
p4876
aVWin
p4877
aS''
aS''
aa(lp4878
VLaughman, Casey
p4879
aVWin
p4880
aS''
aS''
aa(lp4881
VDonovsky, Brandon
p4882
aVWin
p4883
aS''
aS''
aassV12-05-3288313
p4884
(dp4885
g4
I0
sg5
Nsg6
I7
sg7
S''
sg8
I2
sg9
V223
p4886
sg11
V5
sg13
VCollinsville, Illinois, United States
p4887
sg15
VMagic WPN Premium Tournament
p4888
sg17
g4884
sg18
VLegacy
p4889
sg20
I9
sg21
S''
sg22
V2012-07-15
p4890
sg24
(lp4891
(lp4892
VWood, Mark
p4893
aVWin
p4894
aS''
aS''
aa(lp4895
VOllech, Trevor
p4896
aVWin
p4897
aS''
aS''
aa(lp4898
VNaskrent, Jon
p4899
aVWin
p4900
aS''
aS''
aa(lp4901
VHarding, Greg
p4902
aVWin
p4903
aS''
aS''
aa(lp4904
VForsberg, Ryan
p4905
aVWin
p4906
aS''
aS''
aa(lp4907
VBinek, Alex
p4908
aVLoss
p4909
aS''
aS''
aa(lp4910
VIdoux, Drew
p4911
aVWin
p4912
aS''
aS''
aa(lp4913
VSnider, Joshua
p4914
aVWin
p4915
aS''
aS''
aa(lp4916
VRudnick, Corbin
p4917
aVLoss
p4918
aS''
aS''
aassV13-08-4253402
p4919
(dp4920
g4
I0
sg5
Nsg6
I6
sg7
S''
sg8
I4
sg9
V527
p4921
sg11
V96
p4922
sg13
VLas Vegas, Nevada, United States
p4923
sg15
VMagic WPN Premium Tournament
p4924
sg17
g4919
sg18
VStandard
p4925
sg20
I10
sg21
S''
sg22
V2013-12-14
p4926
sg24
(lp4927
(lp4928
VGuo, Michele
p4929
aVWin
p4930
aS''
aS''
aa(lp4931
VHebert, Ruger
p4932
aVWin
p4933
aS''
aS''
aa(lp4934
VAhmed, Konan
p4935
aVWin
p4936
aS''
aS''
aa(lp4937
VHadley, Mike
p4938
aVLoss
p4939
aS''
aS''
aa(lp4940
VViviani, Matthew
p4941
aVLoss
p4942
aS''
aS''
aa(lp4943
VRamsay, Adam
p4944
aVWin
p4945
aS''
aS''
aa(lp4946
VBouzaglou, Joel
p4947
aVLoss
p4948
aS''
aS''
aa(lp4949
VELY, ALEX
p4950
aVWin
p4951
aS''
aS''
aa(lp4952
VFader, Kyle
p4953
aVWin
p4954
aS''
aS''
aa(lp4955
Vpaglia, vincent
p4956
aVLoss
p4957
aS''
aS''
aassV12-12-3697335
p4958
(dp4959
g4
I0
sg5
Nsg6
I3
sg7
S''
sg8
I4
sg9
V819
p4960
sg11
V300
p4961
sg13
VIndianapolis, Indiana, United States
p4962
sg15
VMagic Grand Prix
p4963
sg17
g4958
sg18
VSealed
p4964
sg20
I7
sg21
S''
sg22
V2012-12-22
p4965
sg24
(lp4966
(lp4967
VDavis, Brad
p4968
aVWin
p4969
aS''
aS''
aa(lp4970
VDowning, Eric
p4971
aVLoss
p4972
aS''
aS''
aa(lp4973
VZHENG, XI
p4974
aVLoss
p4975
aS''
aS''
aa(lp4976
VStrand, Brock
p4977
aVWin
p4978
aS''
aS''
aa(lp4979
VGray, Jeremy
p4980
aVLoss
p4981
aS''
aS''
aa(lp4982
VMcMillian, Sean
p4983
aVWin
p4984
aS''
aS''
aa(lp4985
VJansen, Morgan
p4986
aVLoss
p4987
aS''
aS''
aassV14-05-5022430
p4988
(dp4989
g4
I1
sg5
Nsg6
I5
sg7
S''
sg8
I2
sg9
V58
p4990
sg11
V4
sg13
VNiles, Illinois, United States
p4991
sg15
VMagic Game Day
p4992
sg17
g4988
sg18
VStandard
p4993
sg20
I8
sg21
S''
sg22
V2014-05-24
p4994
sg24
(lp4995
(lp4996
VSpartz, Gaby
p4997
aVWin
p4998
aS''
aS''
aa(lp4999
VBernat, Michael
p5000
aVWin
p5001
aS''
aS''
aa(lp5002
VHoey, Matthew
p5003
aVLoss
p5004
aS''
aS''
aa(lp5005
VMorris, Devin
p5006
aVWin
p5007
aS''
aS''
aa(lp5008
VRocha, Jerret
p5009
aVWin
p5010
aS''
aS''
aa(lp5011
VBrewster, Adam
p5012
aVDraw
p5013
aS''
aS''
aa(lp5014
VTragos, Peter
p5015
aVWin
p5016
aS''
aS''
aa(lp5017
VMeier, Greg
p5018
aVLoss
p5019
aS''
aS''
aassV11-04-2718254
p5020
(dp5021
g4
I0
sg5
Nsg6
I4
sg7
S''
sg8
I1
sg9
V17
p5022
sg11
V4
sg13
VOak Lawn, Illinois, United States
p5023
sg15
VFriday Night Magic
p5024
sg17
g5020
sg18
VStandard
p5025
sg20
I5
sg21
S''
sg22
V2011-04-29
p5026
sg24
(lp5027
(lp5028
VGagnon, Robert
p5029
aVWin
p5030
aS''
aS''
aa(lp5031
VUllo, Brad P
p5032
aVWin
p5033
aS''
aS''
aa(lp5034
VHendrzak, Sam
p5035
aVLoss
p5036
aS''
aS''
aa(lp5037
VWHITNEY, SEAN
p5038
aVWin
p5039
aS''
aS''
aa(lp5040
VDoran, Gregory
p5041
aVWin
p5042
aS''
aS''
aassV13-04-3967643
p5043
(dp5044
g4
I1
sg5
Nsg6
I9
sg7
S''
sg8
I2
sg9
V583
p5045
sg11
V3
sg13
VMilwaukee, Wisconsin, United States
p5046
sg15
VMagic WPN Premium Tournament
p5047
sg17
g5043
sg18
VStandard
p5048
sg20
I12
sg21
S''
sg22
V2013-04-13
p5049
sg24
(lp5050
(lp5051
VSerio, Ronny
p5052
aVWin
p5053
aS''
aS''
aa(lp5054
VSimmons, Jasen
p5055
aVWin
p5056
aS''
aS''
aa(lp5057
VHill, Antoneo
p5058
aVWin
p5059
aS''
aS''
aa(lp5060
VHipp, Sarah
p5061
aVWin
p5062
aS''
aS''
aa(lp5063
VBernat, Michael
p5064
aVWin
p5065
aS''
aS''
aa(lp5066
VHeron, Xavier
p5067
aVWin
p5068
aS''
aS''
aa(lp5069
VNyberg, Michael
p5070
aVLoss
p5071
aS''
aS''
aa(lp5072
VFRY, BRYAN
p5073
aVWin
p5074
aS''
aS''
aa(lp5075
VRatcliff, Steven
p5076
aVWin
p5077
aS''
aS''
aa(lp5078
VBlack, Samuel
p5079
aVDraw
p5080
aS''
aS''
aa(lp5081
VBlack, Samuel
p5082
aVWin
p5083
aS''
aS''
aa(lp5084
VFisher, Bryan
p5085
aVLoss
p5086
aS''
aS''
aassV12-05-3287156
p5087
(dp5088
g4
I0
sg5
Nsg6
I9
sg7
S''
sg8
I7
sg9
V235
p5089
sg11
V61
p5090
sg13
VIndianapolis, Indiana, United States
p5091
sg15
VMagic WPN Premium Tournament
p5092
sg17
g5087
sg18
VStandard
p5093
sg20
I16
sg21
S''
sg22
V2012-06-15
p5094
sg24
(lp5095
(lp5096
VWolfe, James
p5097
aVWin
p5098
aS''
aS''
aa(lp5099
VAREVALO, JAVIER
p5100
aVWin
p5101
aS''
aS''
aa(lp5102
VWescoe, Craig
p5103
aVWin
p5104
aS''
aS''
aa(lp5105
VKronenberger, Chris
p5106
aVWin
p5107
aS''
aS''
aa(lp5108
VBraun-Duin, Brian
p5109
aVWin
p5110
aS''
aS''
aa(lp5111
VHetrick, Michael
p5112
aVLoss
p5113
aS''
aS''
aa(lp5114
VBoss, Brian
p5115
aVLoss
p5116
aS''
aS''
aa(lp5117
VSchuett, Court
p5118
aVLoss
p5119
aS''
aS''
aa(lp5120
VThomas, David
p5121
aVLoss
p5122
aS''
aS''
aa(lp5123
VCecchetti, Daniel
p5124
aVLoss
p5125
aS''
aS''
aa(lp5126
VWagener, Joshua
p5127
aVLoss
p5128
aS''
aS''
aa(lp5129
VPino, Gregory
p5130
aVLoss
p5131
aS''
aS''
aa(lp5132
VGAGNON, JAKE
p5133
aVWin
p5134
aS''
aS''
aa(lp5135
VDye, Michael
p5136
aVWin
p5137
aS''
aS''
aa(lp5138
VSkolnik, Yoni
p5139
aVWin
p5140
aS''
aS''
aa(lp5141
VShrout, Andrew
p5142
aVWin
p5143
aS''
aS''
aassV14-04-4919588
p5144
(dp5145
g4
I1
sg5
Nsg6
I5
sg7
S''
sg8
I2
sg9
V24
p5146
sg11
V2
sg13
VCentralia, Illinois, United States
p5147
sg15
g96
sg17
g5144
sg18
VStandard
p5148
sg20
I8
sg21
S''
sg22
V2014-04-12
p5149
sg24
(lp5150
(lp5151
VLambeth, Jesse
p5152
aVWin
p5153
aS''
aS''
aa(lp5154
VScherrer, Brett
p5155
aVLoss
p5156
aS''
aS''
aa(lp5157
VTadrick, Paul
p5158
aVWin
p5159
aS''
aS''
aa(lp5160
Vmeier, josh
p5161
aVWin
p5162
aS''
aS''
aa(lp5163
Vbarton, tim
p5164
aVDraw
p5165
aS''
aS''
aa(lp5166
VHIATT, SHANE
p5167
aVWin
p5168
aS''
aS''
aa(lp5169
Vbarton, tim
p5170
aVWin
p5171
aS''
aS''
aa(lp5172
VDiemer, Eric
p5173
aVLoss
p5174
aS''
aS''
aassV11-09-2955866
p5175
(dp5176
g4
I0
sg5
Nsg6
I1
sg7
S''
sg8
I4
sg9
V44
p5177
sg11
V37
p5178
sg13
VLemont, Illinois, United States
p5179
sg15
g96
sg17
g5175
sg18
VCasual - Limited
p5180
sg20
I5
sg21
S''
sg22
V2011-09-10
p5181
sg24
(lp5182
(lp5183
VFlores, Enrique
p5184
aVLoss
p5185
aS''
aS''
aa(lp5186
VCorbin, Jimmy
p5187
aVWin
p5188
aS''
aS''
aa(lp5189
VHUTTON, JAMES
p5190
aVLoss
p5191
aS''
aS''
aa(lp5192
VBURKE, TRAVIS m
p5193
aVLoss
p5194
aS''
aS''
aa(lp5195
VKilikevicius, Rokas
p5196
aVLoss
p5197
aS''
aS''
aassV13-01-3840248
p5198
(dp5199
g4
I0
sg5
Nsg6
I6
sg7
S''
sg8
I2
sg9
V186
p5200
sg11
V10
p5201
sg13
VIndianapolis, Indiana, United States
p5202
sg15
VMagic Pro Tour Qualifier
p5203
sg17
g5198
sg18
VModern
p5204
sg20
I8
sg21
S''
sg22
V2013-01-19
p5205
sg24
(lp5206
(lp5207
VGleicher, David
p5208
aVWin
p5209
aS''
aS''
aa(lp5210
VBuzzie, Daniel
p5211
aVWin
p5212
aS''
aS''
aa(lp5213
Vtorres, carlos
p5214
aVWin
p5215
aS''
aS''
aa(lp5216
VPepmeyer, Scott
p5217
aVWin
p5218
aS''
aS''
aa(lp5219
VTragos, Peter
p5220
aVLoss
p5221
aS''
aS''
aa(lp5222
VJohnson, Peter
p5223
aVLoss
p5224
aS''
aS''
aa(lp5225
VSevera, Matt
p5226
aVWin
p5227
aS''
aS''
aa(lp5228
VUppal, Justin
p5229
aVWin
p5230
aS''
aS''
aassV12-11-3755437
p5231
(dp5232
g4
I0
sg5
Nsg6
I3
sg7
S''
sg8
I2
sg9
V32
p5233
sg11
V13
p5234
sg13
VBloomington, Illinois, United States
p5235
sg15
g96
sg17
g5231
sg18
VLegacy
p5236
sg20
I5
sg21
S''
sg22
V2012-11-17
p5237
sg24
(lp5238
(lp5239
VROBERTS, ALEX
p5240
aVLoss
p5241
aS''
aS''
aa(lp5242
VRasmussen, Jeff
p5243
aVWin
p5244
aS''
aS''
aa(lp5245
VO'Neal, Paul
p5246
aVLoss
p5247
aS''
aS''
aa(lp5248
VCosgrove, Jeff
p5249
aVWin
p5250
aS''
aS''
aa(lp5251
VLester, Ivan
p5252
aVWin
p5253
aS''
aS''
aassV13-08-4253348
p5254
(dp5255
g4
I0
sg5
Nsg6
I1
sg7
S''
sg8
I3
sg9
V388
p5256
sg11
V300
p5257
sg13
VIndianapolis, Indiana, United States
p5258
sg15
VMagic WPN Premium Tournament
p5259
sg17
g5254
sg18
VLegacy
p5260
sg20
I4
sg21
S''
sg22
V2013-10-27
p5261
sg24
(lp5262
(lp5263
VHerzog, Thomas
p5264
aVWin
p5265
aS''
aS''
aa(lp5266
VGerhart, Kevin
p5267
aVLoss
p5268
aS''
aS''
aa(lp5269
VNorton, Matthew
p5270
aVLoss
p5271
aS''
aS''
aa(lp5272
VRill, Eric
p5273
aVLoss
p5274
aS''
aS''
aassV14-04-4917839
p5275
(dp5276
g4
I0
sg5
Nsg6
I4
sg7
S''
sg8
I4
sg9
V593
p5277
sg11
V229
p5278
sg13
VNovi, Michigan, United States
p5279
sg15
VMagic WPN Premium Tournament
p5280
sg17
g5275
sg18
VStandard
p5281
sg20
I8
sg21
S''
sg22
V2014-04-19
p5282
sg24
(lp5283
(lp5284
VKlimaszewski, Brian
p5285
aVWin
p5286
aS''
aS''
aa(lp5287
VBomia, Justin
p5288
aVWin
p5289
aS''
aS''
aa(lp5290
VKeyes, Jeremy
p5291
aVLoss
p5292
aS''
aS''
aa(lp5293
VHank, John
p5294
aVWin
p5295
aS''
aS''
aa(lp5296
Vpetrilli, Trevor
p5297
aVLoss
p5298
aS''
aS''
aa(lp5299
VSMYTHE, TONY
p5300
aVWin
p5301
aS''
aS''
aa(lp5302
VCrocker, Ken
p5303
aVLoss
p5304
aS''
aS''
aa(lp5305
VFournier, Daniel
p5306
aVLoss
p5307
aS''
aS''
aassV13-08-4253291
p5308
(dp5309
g4
I0
sg5
Nsg6
I2
sg7
S''
sg8
I4
sg9
V234
p5310
sg11
V177
p5311
sg13
VCleveland, Ohio, United States
p5312
sg15
VMagic WPN Premium Tournament
p5313
sg17
g5308
sg18
VLegacy
p5314
sg20
I6
sg21
S''
sg22
V2013-10-06
p5315
sg24
(lp5316
(lp5317
VHigginbottom, James
p5318
aVLoss
p5319
aS''
aS''
aa(lp5320
VTuchek, Steve
p5321
aVLoss
p5322
aS''
aS''
aa(lp5323
VRiggin, Shawn
p5324
aVWin
p5325
aS''
aS''
aa(lp5326
VEarley, Nino
p5327
aVLoss
p5328
aS''
aS''
aa(lp5329
VSlough, Reid
p5330
aVWin
p5331
aS''
aS''
aa(lp5332
VStone, Erick
p5333
aVLoss
p5334
aS''
aS''
aassV14-09-5396039
p5335
(dp5336
g4
I0
sg5
Nsg6
I6
sg7
V
sg8
I2
sg9
V181
p5337
sg11
V10
p5338
sg13
VColumbus, Ohio, United States
p5339
sg15
VMagic WPN Premium Tournament
p5340
sg17
g5335
sg18
VModern
p5341
sg20
I8
sg21
VURw Fae
p5342
sg22
V2014-11-09
p5343
sg24
(lp5344
(lp5345
VSpore, Keith
p5346
aVWin
p5347
aS''
aS''
aa(lp5348
VValentine, Aj
p5349
aVLoss
p5350
aS''
aS''
aa(lp5351
VClark, Spencer
p5352
aVWin
p5353
aS''
aS''
aa(lp5354
VBarrett, Cory
p5355
aVWin
p5356
aS''
aS''
aa(lp5357
VFieber, Kevin
p5358
aVWin
p5359
aS''
aS''
aa(lp5360
VCosta, Tim
p5361
aVWin
p5362
aS''
aS''
aa(lp5363
VWilt, Carl
p5364
aVWin
p5365
aS''
aS''
aa(lp5366
VNewman, Carter
p5367
aVLoss
p5368
aS''
aS''
aassV13-06-3815799
p5369
(dp5370
g4
I0
sg5
Nsg6
I3
sg7
S''
sg8
I3
sg9
V4492
p5371
sg11
V529
p5372
sg13
VLas Vegas, Nevada, United States
p5373
sg15
VMagic Grand Prix
p5374
sg17
g5369
sg18
VSealed
p5375
sg20
I6
sg21
S''
sg22
V2013-06-22
p5376
sg24
(lp5377
(lp5378
VLossett, Joe
p5379
aVWin
p5380
aS''
aS''
aa(lp5381
VAllbright, Bob
p5382
aVWin
p5383
aS''
aS''
aa(lp5384
VMcCormack, Conor
p5385
aVLoss
p5386
aS''
aS''
aa(lp5387
VSheldon, Donald
p5388
aVWin
p5389
aS''
aS''
aa(lp5390
VSolari, Rafael
p5391
aVLoss
p5392
aS''
aS''
aa(lp5393
VLi, Chen
p5394
aVLoss
p5395
aS''
aS''
aassV13-06-4057354
p5396
(dp5397
g4
I0
sg5
Nsg6
I5
sg7
S''
sg8
I4
sg9
V233
p5398
sg11
V48
p5399
sg13
VRosemont, Illinois, United States
p5400
sg15
VWorld Magic Cup Qualifier
p5401
sg17
g5396
sg18
VStandard
p5402
sg20
I9
sg21
S''
sg22
V2013-06-01
p5403
sg24
(lp5404
(lp5405
VMiller, Casey
p5406
aVWin
p5407
aS''
aS''
aa(lp5408
VFritz, Thomas
p5409
aVWin
p5410
aS''
aS''
aa(lp5411
VKeyes, Jeremy
p5412
aVWin
p5413
aS''
aS''
aa(lp5414
VCecchetti, Daniel
p5415
aVLoss
p5416
aS''
aS''
aa(lp5417
VMaine, Andrew
p5418
aVWin
p5419
aS''
aS''
aa(lp5420
VHipp, Ryan
p5421
aVLoss
p5422
aS''
aS''
aa(lp5423
VWelbes, Josef
p5424
aVLoss
p5425
aS''
aS''
aa(lp5426
VCarlson, Matthew
p5427
aVWin
p5428
aS''
aS''
aa(lp5429
VJansen, Morgan
p5430
aVLoss
p5431
aS''
aS''
aassV14-05-5027319
p5432
(dp5433
g4
I0
sg5
Nsg6
I5
sg7
S''
sg8
I2
sg9
V29
p5434
sg11
V4
sg13
VBuffalo Grove, Illinois, United States
p5435
sg15
VMagic Game Day
p5436
sg17
g5432
sg18
VStandard
p5437
sg20
I7
sg21
S''
sg22
V2014-05-25
p5438
sg24
(lp5439
(lp5440
VMeier, Greg
p5441
aVLoss
p5442
aS''
aS''
aa(lp5443
VBudrow, Jeremy
p5444
aVWin
p5445
aS''
aS''
aa(lp5446
VDow, Matt
p5447
aVWin
p5448
aS''
aS''
aa(lp5449
Vcerka, jeremy
p5450
aVWin
p5451
aS''
aS''
aa(lp5452
VBanys, Ryan
p5453
aVWin
p5454
aS''
aS''
aa(lp5455
VLarsen, Nick
p5456
aVWin
p5457
aS''
aS''
aa(lp5458
VBrohman, Josh
p5459
aVLoss
p5460
aS''
aS''
aassV14-08-5474658
p5461
(dp5462
g4
I0
sg5
Nsg6
I2
sg7
S''
sg8
I3
sg9
V30
p5463
sg11
V16
p5464
sg13
VPerryville, Missouri, United States
p5465
sg15
g96
sg17
g5461
sg18
VStandard
p5466
sg20
I5
sg21
S''
sg22
V2014-08-16
p5467
sg24
(lp5468
(lp5469
VHumphrey, Bryce
p5470
aVWin
p5471
aS''
aS''
aa(lp5472
VSTEWART, BENJAMIN
p5473
aVWin
p5474
aS''
aS''
aa(lp5475
VGonzalez, Alex
p5476
aVLoss
p5477
aS''
aS''
aa(lp5478
VChapman, Michael
p5479
aVLoss
p5480
aS''
aS''
aa(lp5481
VRobinson, Ben
p5482
aVLoss
p5483
aS''
aS''
aassV14-04-4910077
p5484
(dp5485
g4
I0
sg5
Nsg6
I6
sg7
S''
sg8
I3
sg9
V300
p5486
sg11
V55
p5487
sg13
VRoanoke, Virginia, United States
p5488
sg15
VMagic WPN Premium Tournament
p5489
sg17
g5484
sg18
VLegacy
p5490
sg20
I9
sg21
S''
sg22
V2014-05-04
p5491
sg24
(lp5492
(lp5493
VLong, Justin
p5494
aVLoss
p5495
aS''
aS''
aa(lp5496
VHulings, Brandon
p5497
aVWin
p5498
aS''
aS''
aa(lp5499
VAntrim, Michael
p5500
aVWin
p5501
aS''
aS''
aa(lp5502
VIdoni, Ben
p5503
aVLoss
p5504
aS''
aS''
aa(lp5505
VNir, JD
p5506
aVLoss
p5507
aS''
aS''
aa(lp5508
VTaylor, Harry
p5509
aVWin
p5510
aS''
aS''
aa(lp5511
VScott, Zachary
p5512
aVWin
p5513
aS''
aS''
aa(lp5514
VHorne, Stephen
p5515
aVWin
p5516
aS''
aS''
aa(lp5517
VGrant, Brad
p5518
aVWin
p5519
aS''
aS''
aassV14-04-4910076
p5520
(dp5521
g4
I2
sg5
Nsg6
I9
sg7
S''
sg8
I1
sg9
V476
p5522
sg11
V3
sg13
VSharonville, Ohio, United States
p5523
sg15
VMagic WPN Premium Tournament
p5524
sg17
g5520
sg18
VStandard
p5525
sg20
I12
sg21
S''
sg22
V2014-05-03
p5526
sg24
(lp5527
(lp5528
VSCHORK, ZACH
p5529
aVWin
p5530
aS''
aS''
aa(lp5531
VSpeers, Donavahn
p5532
aVWin
p5533
aS''
aS''
aa(lp5534
VWilliams, Corey
p5535
aVWin
p5536
aS''
aS''
aa(lp5537
VPitstick, David
p5538
aVWin
p5539
aS''
aS''
aa(lp5540
Vrussell, Joe
p5541
aVWin
p5542
aS''
aS''
aa(lp5543
VGotthardt, Ben
p5544
aVWin
p5545
aS''
aS''
aa(lp5546
VNabors, Will
p5547
aVWin
p5548
aS''
aS''
aa(lp5549
VBowman, Adam
p5550
aVWin
p5551
aS''
aS''
aa(lp5552
VGfroerer, Alex
p5553
aVDraw
p5554
aS''
aS''
aa(lp5555
VO'Bryant, Christopher
p5556
aVDraw
p5557
aS''
aS''
aa(lp5558
VMccullough, Matthew
p5559
aVWin
p5560
aS''
aS''
aa(lp5561
VTenjum, Andrew
p5562
aVLoss
p5563
aS''
aS''
aassV14-04-4910071
p5564
(dp5565
g4
I0
sg5
Nsg6
I6
sg7
S''
sg8
I3
sg9
V376
p5566
sg11
V48
p5567
sg13
VMilwaukee, Wisconsin, United States
p5568
sg15
VMagic WPN Premium Tournament
p5569
sg17
g5564
sg18
VLegacy
p5570
sg20
I9
sg21
S''
sg22
V2014-04-06
p5571
sg24
(lp5572
(lp5573
VHess, Nick
p5574
aVWin
p5575
aS''
aS''
aa(lp5576
Vhenderson, jim
p5577
aVLoss
p5578
aS''
aS''
aa(lp5579
VWiltman, Von
p5580
aVWin
p5581
aS''
aS''
aa(lp5582
VSolymossy, Mike
p5583
aVWin
p5584
aS''
aS''
aa(lp5585
VClark, Dakota
p5586
aVWin
p5587
aS''
aS''
aa(lp5588
VCOUEY, ROBB
p5589
aVWin
p5590
aS''
aS''
aa(lp5591
VPeterson, Tristan
p5592
aVLoss
p5593
aS''
aS''
aa(lp5594
VRasmussen, Jeff
p5595
aVWin
p5596
aS''
aS''
aa(lp5597
VSchafer, Gregory
p5598
aVLoss
p5599
aS''
aS''
aassV12-08-3426242
p5600
(dp5601
g4
I0
sg5
Nsg6
I1
sg7
S''
sg8
I3
sg9
V20
p5602
sg11
V14
p5603
sg13
VBloomington, Illinois, United States
p5604
sg15
VMagic Game Day
p5605
sg17
g5600
sg18
VStandard
p5606
sg20
I4
sg21
S''
sg22
V2012-08-04
p5607
sg24
(lp5608
(lp5609
VGeorge, Timothy
p5610
aVLoss
p5611
aS''
aS''
aa(lp5612
VWoerner, Nick
p5613
aVLoss
p5614
aS''
aS''
aa(lp5615
VRackauskas, Jarrod
p5616
aVWin
p5617
aS''
aS''
aa(lp5618
VKaufman, Cj
p5619
aVLoss
p5620
aS''
aS''
aassV14-04-4910079
p5621
(dp5622
g4
I0
sg5
Nsg6
I0
sg7
S''
sg8
I3
sg9
V408
p5623
sg11
V398
p5624
sg13
VKnoxville, Tennessee, United States
p5625
sg15
VMagic WPN Premium Tournament
p5626
sg17
g5621
sg18
VStandard
p5627
sg20
I3
sg21
S''
sg22
V2014-05-10
p5628
sg24
(lp5629
(lp5630
VRittiner, Joe
p5631
aVLoss
p5632
aS''
aS''
aa(lp5633
VOsborne, Jason
p5634
aVLoss
p5635
aS''
aS''
aa(lp5636
VYoung, Matt
p5637
aVLoss
p5638
aS''
aS''
aassV13-04-4017861
p5639
(dp5640
g4
I1
sg5
Nsg6
I3
sg7
S''
sg8
I0
sg9
V16
p5641
sg11
V1
sg13
VBloomington, Illinois, United States
p5642
sg15
VFriday Night Magic
p5643
sg17
g5639
sg18
VModern
p5644
sg20
I4
sg21
S''
sg22
V2013-04-26
p5645
sg24
(lp5646
(lp5647
VHutchins, Phillip
p5648
aVWin
p5649
aS''
aS''
aa(lp5650
VYONKE, TYLER
p5651
aVWin
p5652
aS''
aS''
aa(lp5653
VBradley, Sam
p5654
aVWin
p5655
aS''
aS''
aa(lp5656
VKletz, Michael
p5657
aVDraw
p5658
aS''
aS''
aassV14-10-5747779
p5659
(dp5660
g4
I1
sg5
Nsg6
I5
sg7
S''
sg8
I1
sg9
V101
p5661
sg11
V9
sg13
VVilla Park, Illinois, United States
p5662
sg15
g96
sg17
g5659
sg18
VStandard
p5663
sg20
I7
sg21
S''
sg22
V2014-10-19
p5664
sg24
(lp5665
(lp5666
Vnicoletti, jonathan
p5667
aVWin
p5668
aS''
aS''
aa(lp5669
VLaughman, Casey
p5670
aVWin
p5671
aS''
aS''
aa(lp5672
VFlores, Enrique
p5673
aVWin
p5674
aS''
aS''
aa(lp5675
VLevine, Jeff
p5676
aVLoss
p5677
aS''
aS''
aa(lp5678
VOrellana, Manuel
p5679
aVWin
p5680
aS''
aS''
aa(lp5681
VCecere, Jim
p5682
aVWin
p5683
aS''
aS''
aa(lp5684
VSmith, Greg
p5685
aVDraw
p5686
aS''
aS''
aassV12-12-3770196
p5687
(dp5688
g4
I1
sg5
Nsg6
I5
sg7
S''
sg8
I1
sg9
V14
p5689
sg11
V2
sg13
VBloomington, Illinois, United States
p5690
sg15
VMagic Grand Prix Trial
p5691
sg17
g5687
sg18
VModern
p5692
sg20
I7
sg21
S''
sg22
V2012-12-08
p5693
sg24
(lp5694
(lp5695
VCarmody, Michael
p5696
aVWin
p5697
aS''
aS''
aa(lp5698
VSCOTT, TREVOR
p5699
aVWin
p5700
aS''
aS''
aa(lp5701
VKinkade, Eben
p5702
aVWin
p5703
aS''
aS''
aa(lp5704
VGordon, Grant
p5705
aVWin
p5706
aS''
aS''
aa(lp5707
VNorton, Matt
p5708
aVDraw
p5709
aS''
aS''
aa(lp5710
VGordon, Grant
p5711
aVWin
p5712
aS''
aS''
aa(lp5713
VNorton, Matt
p5714
aVLoss
p5715
aS''
aS''
aassV12-10-3668857
p5716
(dp5717
g4
I0
sg5
Nsg6
I2
sg7
S''
sg8
I2
sg9
V29
p5718
sg11
V14
p5719
sg13
VBloomington, Illinois, United States
p5720
sg15
VFriday Night Magic
p5721
sg17
g5716
sg18
VStandard
p5722
sg20
I4
sg21
S''
sg22
V2012-10-12
p5723
sg24
(lp5724
(lp5725
VHOLT, ZACK
p5726
aVWin
p5727
aS''
aS''
aa(lp5728
VSAVAGE, LANCE
p5729
aVLoss
p5730
aS''
aS''
aa(lp5731
VMoore, Andy
p5732
aVLoss
p5733
aS''
aS''
aa(lp5734
VKaufman, Cj
p5735
aVWin
p5736
aS''
aS''
aassV14-08-5233857
p5737
(dp5738
g4
I1
sg5
Nsg6
I6
sg7
S''
sg8
I1
sg9
V28
p5739
sg11
V1
sg13
VBuffalo Grove, Illinois, United States
p5740
sg15
VMagic Game Day
p5741
sg17
g5737
sg18
VStandard
p5742
sg20
I8
sg21
S''
sg22
V2014-08-09
p5743
sg24
(lp5744
(lp5745
VLapinski, Alex
p5746
aVWin
p5747
aS''
aS''
aa(lp5748
VLapeire, Jake
p5749
aVWin
p5750
aS''
aS''
aa(lp5751
VZurawaki, Alex
p5752
aVDraw
p5753
aS''
aS''
aa(lp5754
VBirdsall, Rob
p5755
aVLoss
p5756
aS''
aS''
aa(lp5757
VBilladeau, Derek
p5758
aVWin
p5759
aS''
aS''
aa(lp5760
VStone, Yonathan
p5761
aVWin
p5762
aS''
aS''
aa(lp5763
VZurawaki, Alex
p5764
aVWin
p5765
aS''
aS''
aa(lp5766
VJensen, Jacob
p5767
aVWin
p5768
aS''
aS''
aassV13-02-4023855
p5769
(dp5770
g4
I0
sg5
Nsg6
I4
sg7
S''
sg8
I1
sg9
V22
p5771
sg11
V3
sg13
VLemont, Illinois, United States
p5772
sg15
g96
sg17
g5769
sg18
VModern
p5773
sg20
I5
sg21
S''
sg22
V2013-02-10
p5774
sg24
(lp5775
(lp5776
VLarsen, Nick
p5777
aVWin
p5778
aS''
aS''
aa(lp5779
VTRAUTMANN, RYAN
p5780
aVWin
p5781
aS''
aS''
aa(lp5782
VBagley, Brett
p5783
aVLoss
p5784
aS''
aS''
aa(lp5785
VCorbin, James
p5786
aVWin
p5787
aS''
aS''
aa(lp5788
VJaved, Alexander
p5789
aVWin
p5790
aS''
aS''
aassV13-12-4645496
p5791
(dp5792
g4
I0
sg5
Nsg6
I1
sg7
S''
sg8
I2
sg9
V10
p5793
sg11
V8
sg13
VBloomington, Illinois, United States
p5794
sg15
VFriday Night Magic
p5795
sg17
g5791
sg18
VStandard
p5796
sg20
I3
sg21
S''
sg22
V2013-12-20
p5797
sg24
(lp5798
(lp5799
VBrabant, Peter
p5800
aVWin
p5801
aS''
aS''
aa(lp5802
VSIMPKINS, ERIC
p5803
aVLoss
p5804
aS''
aS''
aa(lp5805
VSeyko, Bryce
p5806
aVLoss
p5807
aS''
aS''
aassV12-05-3287148
p5808
(dp5809
g4
I0
sg5
Nsg6
I7
sg7
S''
sg8
I2
sg9
V258
p5810
sg11
V14
p5811
sg13
VColumbus, Ohio, United States
p5812
sg15
VMagic WPN Premium Tournament
p5813
sg17
g5808
sg18
VLegacy
p5814
sg20
I9
sg21
S''
sg22
V2012-06-03
p5815
sg24
(lp5816
(lp5817
VVance, Jerry
p5818
aVWin
p5819
aS''
aS''
aa(lp5820
VMuir, Scott D
p5821
aVLoss
p5822
aS''
aS''
aa(lp5823
VSprague, Matt
p5824
aVWin
p5825
aS''
aS''
aa(lp5826
VWebb, Jerrod
p5827
aVWin
p5828
aS''
aS''
aa(lp5829
VMiller, Drew
p5830
aVWin
p5831
aS''
aS''
aa(lp5832
VJackson, Daniel J
p5833
aVWin
p5834
aS''
aS''
aa(lp5835
VMoes, Geoffrey
p5836
aVLoss
p5837
aS''
aS''
aa(lp5838
VWAGSTAFF, EVAN
p5839
aVWin
p5840
aS''
aS''
aa(lp5841
VHiroki, Kenta
p5842
aVWin
p5843
aS''
aS''
aassV13-11-4652030
p5844
(dp5845
g4
I0
sg5
Nsg6
I4
sg7
S''
sg8
I3
sg9
V374
p5846
sg11
V77
p5847
sg13
VNiles, Illinois, United States
p5848
sg15
VMagic WPN Premium Tournament
p5849
sg17
g5844
sg18
VStandard
p5850
sg20
I7
sg21
S''
sg22
V2013-11-02
p5851
sg24
(lp5852
(lp5853
VMorgan, Ian
p5854
aVWin
p5855
aS''
aS''
aa(lp5856
VTabler, Michael
p5857
aVLoss
p5858
aS''
aS''
aa(lp5859
VVELZY, JONATHAN
p5860
aVLoss
p5861
aS''
aS''
aa(lp5862
VWiley, Zarek
p5863
aVWin
p5864
aS''
aS''
aa(lp5865
VGreenidge, Jamal
p5866
aVWin
p5867
aS''
aS''
aa(lp5868
VBen-zeev, Ari
p5869
aVWin
p5870
aS''
aS''
aa(lp5871
VWest, Evan
p5872
aVLoss
p5873
aS''
aS''
aassV13-11-4652035
p5874
(dp5875
g4
I0
sg5
Nsg6
I1
sg7
S''
sg8
I3
sg9
V112
p5876
sg11
V100
p5877
sg13
VNiles, Illinois, United States
p5878
sg15
g96
sg17
g5874
sg18
VStandard
p5879
sg20
I4
sg21
S''
sg22
V2013-11-03
p5880
sg24
(lp5881
(lp5882
VBlankenship, Arthur
p5883
aVLoss
p5884
aS''
aS''
aa(lp5885
VMispagel, Joey
p5886
aVWin
p5887
aS''
aS''
aa(lp5888
VDean, Jonathan
p5889
aVLoss
p5890
aS''
aS''
aa(lp5891
VCulp, Bob
p5892
aVLoss
p5893
aS''
aS''
aassV13-11-4652037
p5894
(dp5895
g4
I0
sg5
Nsg6
I4
sg7
S''
sg8
I2
sg9
V24
p5896
sg11
V4
sg13
VNiles, Illinois, United States
p5897
sg15
g96
sg17
g5894
sg18
VModern
p5898
sg20
I6
sg21
S''
sg22
V2013-11-03
p5899
sg24
(lp5900
(lp5901
VBeckham, Dylan
p5902
aVWin
p5903
aS''
aS''
aa(lp5904
Vcurran, Riley
p5905
aVWin
p5906
aS''
aS''
aa(lp5907
Vbertoncini, alex
p5908
aVLoss
p5909
aS''
aS''
aa(lp5910
VMCSHANE, IAN
p5911
aVWin
p5912
aS''
aS''
aa(lp5913
VPeterson, Tristan
p5914
aVWin
p5915
aS''
aS''
aa(lp5916
VMusser, Dan
p5917
aVLoss
p5918
aS''
aS''
aassV13-07-4434242
p5919
(dp5920
g4
I0
sg5
Nsg6
I2
sg7
S''
sg8
I1
sg9
V8
sg11
V2
sg13
VBloomington, Illinois, United States
p5921
sg15
g96
sg17
g5919
sg18
VCasual - Constructed
p5922
sg20
I3
sg21
S''
sg22
V2013-07-22
p5923
sg24
(lp5924
(lp5925
VKletz, Michael
p5926
aVWin
p5927
aS''
aS''
aa(lp5928
VSchurer, Jake
p5929
aVWin
p5930
aS''
aS''
aa(lp5931
VRasmussen, Jeff
p5932
aVLoss
p5933
aS''
aS''
aassV14-04-4910100[8]
p5934
(dp5935
g4
I0
sg5
Nsg6
I0
sg7
S''
sg8
I1
sg9
V16
p5936
sg11
V13
p5937
sg13
VColumbus, Ohio, United States
p5938
sg15
g96
sg17
g5934
sg18
VStandard
p5939
sg20
I1
sg21
S''
sg22
V2014-06-12
p5940
sg24
(lp5941
(lp5942
VPAGE, TAYLOR
p5943
aVLoss
p5944
aS''
aS''
aassV14-06-5351341
p5945
(dp5946
g4
I0
sg5
Nsg6
I4
sg7
S''
sg8
I0
sg9
V15
p5947
sg11
V1
sg13
VBloomington, Illinois, United States
p5948
sg15
g96
sg17
g5945
sg18
VCasual - Constructed
p5949
sg20
I4
sg21
S''
sg22
V2014-06-25
p5950
sg24
(lp5951
(lp5952
VO'Hare, Sean
p5953
aVWin
p5954
aS''
aS''
aa(lp5955
VSmiley, Chance
p5956
aVWin
p5957
aS''
aS''
aa(lp5958
VWiltse, Josh
p5959
aVWin
p5960
aS''
aS''
aa(lp5961
VRasmussen, Jeff
p5962
aVWin
p5963
aS''
aS''
aassV14-07-5458106
p5964
(dp5965
g4
I0
sg5
Nsg6
I5
sg7
S''
sg8
I2
sg9
V110
p5966
sg11
V11
p5967
sg13
VKansas City, Missouri, United States
p5968
sg15
g96
sg17
g5964
sg18
VModern
p5969
sg20
I7
sg21
S''
sg22
V2014-07-27
p5970
sg24
(lp5971
(lp5972
VCamire, Phil
p5973
aVLoss
p5974
aS''
aS''
aa(lp5975
VKissane, Jeremy
p5976
aVWin
p5977
aS''
aS''
aa(lp5978
VOrtero, Travis
p5979
aVWin
p5980
aS''
aS''
aa(lp5981
VGriffin, Franklin
p5982
aVWin
p5983
aS''
aS''
aa(lp5984
VMasterson, Caleb
p5985
aVWin
p5986
aS''
aS''
aa(lp5987
VCaton, Kenneth
p5988
aVLoss
p5989
aS''
aS''
aa(lp5990
VHeule, Tyler
p5991
aVWin
p5992
aS''
aS''
aassV12-05-3287147
p5993
(dp5994
g4
I1
sg5
Nsg6
I6
sg7
S''
sg8
I3
sg9
V497
p5995
sg11
V72
p5996
sg13
VColumbus, Ohio, United States
p5997
sg15
VMagic WPN Premium Tournament
p5998
sg17
g5993
sg18
VStandard
p5999
sg20
I10
sg21
S''
sg22
V2012-06-02
p6000
sg24
(lp6001
(lp6002
VVanallen, Nathan
p6003
aVWin
p6004
aS''
aS''
aa(lp6005
VGarcia, Matthew
p6006
aVDraw
p6007
aS''
aS''
aa(lp6008
VWhiteman, Justin
p6009
aVWin
p6010
aS''
aS''
aa(lp6011
VHostutler, Dusty
p6012
aVLoss
p6013
aS''
aS''
aa(lp6014
VFunk, Chris
p6015
aVLoss
p6016
aS''
aS''
aa(lp6017
VFrisone, Nick
p6018
aVWin
p6019
aS''
aS''
aa(lp6020
VPants, Bear
p6021
aVWin
p6022
aS''
aS''
aa(lp6023
VCassata, Joe
p6024
aVWin
p6025
aS''
aS''
aa(lp6026
VPendleton, Coy
p6027
aVWin
p6028
aS''
aS''
aa(lp6029
VMarge, Matt
p6030
aVLoss
p6031
aS''
aS''
aassV12-07-3576769
p6032
(dp6033
g4
I1
sg5
Nsg6
I5
sg7
S''
sg8
I1
sg9
V104
p6034
sg11
V9
sg13
VColumbus, Ohio, United States
p6035
sg15
g96
sg17
g6032
sg18
VStandard
p6036
sg20
I7
sg21
S''
sg22
V2012-07-22
p6037
sg24
(lp6038
(lp6039
VLee, Matthew S.
p6040
aVWin
p6041
aS''
aS''
aa(lp6042
VPyka, Jeff
p6043
aVLoss
p6044
aS''
aS''
aa(lp6045
VSpencer, Dwight
p6046
aVWin
p6047
aS''
aS''
aa(lp6048
VCornwell-Shiel, Chris
p6049
aVDraw
p6050
aS''
aS''
aa(lp6051
VCriclebaugh, DAVID
p6052
aVWin
p6053
aS''
aS''
aa(lp6054
VMullin, Geoff
p6055
aVWin
p6056
aS''
aS''
aa(lp6057
VBridges, Yusef
p6058
aVWin
p6059
aS''
aS''
aassV14-09-5396021
p6060
(dp6061
g4
I0
sg5
Nsg6
I7
sg7
V
sg8
I4
sg9
V757
p6062
sg11
V109
p6063
sg13
VColumbus, Ohio, United States
p6064
sg15
VMagic WPN Premium Tournament
p6065
sg17
g6060
sg18
VStandard
p6066
sg20
I11
sg21
VTemur Aggro
p6067
sg22
V2014-11-08
p6068
sg24
(lp6069
(lp6070
VDavis, Mark
p6071
aVLoss
p6072
aS''
aS''
aa(lp6073
VELLSWORTH, OWEN
p6074
aVWin
p6075
aS''
aS''
aa(lp6076
Vmetzloff, ben
p6077
aVWin
p6078
aS''
aS''
aa(lp6079
VRidenour, Christian
p6080
aVWin
p6081
aS''
aS''
aa(lp6082
VHONAKER, BEN
p6083
aVLoss
p6084
aS''
aS''
aa(lp6085
VWisner, Mike
p6086
aVLoss
p6087
aS''
aS''
aa(lp6088
VRoss, Harrison
p6089
aVWin
p6090
aS''
aS''
aa(lp6091
VAshley, Steven
p6092
aVWin
p6093
aS''
aS''
aa(lp6094
Vwelsh, jared
p6095
aVWin
p6096
aS''
aS''
aa(lp6097
VLEWIS, JACOB
p6098
aVWin
p6099
aS''
aS''
aa(lp6100
Vfalk, andy
p6101
aVLoss
p6102
aS''
aS''
aassV14-01-4909335
p6103
(dp6104
g4
I0
sg5
Nsg6
I4
sg7
S''
sg8
I0
sg9
V10
p6105
sg11
V1
sg13
VBloomington, Illinois, United States
p6106
sg15
g96
sg17
g6103
sg18
VCasual - Constructed
p6107
sg20
I4
sg21
S''
sg22
V2014-01-23
p6108
sg24
(lp6109
(lp6110
VWoerner, Nick
p6111
aVWin
p6112
aS''
aS''
aa(lp6113
VMORLEY, TJ
p6114
aVWin
p6115
aS''
aS''
aa(lp6116
VProchaska, Anthony
p6117
aVWin
p6118
aS''
aS''
aa(lp6119
VNorton, Matt
p6120
aVWin
p6121
aS''
aS''
aassV14-04-4917841
p6122
(dp6123
g4
I0
sg5
Nsg6
I4
sg7
S''
sg8
I4
sg9
V225
p6124
sg11
V81
p6125
sg13
VNovi, Michigan, United States
p6126
sg15
VMagic WPN Premium Tournament
p6127
sg17
g6122
sg18
VLegacy
p6128
sg20
I8
sg21
S''
sg22
V2014-04-20
p6129
sg24
(lp6130
(lp6131
VShannon, Scott
p6132
aVLoss
p6133
aS''
aS''
aa(lp6134
VDowker, Ethan
p6135
aVWin
p6136
aS''
aS''
aa(lp6137
VPendock, David
p6138
aVWin
p6139
aS''
aS''
aa(lp6140
VDavis, Todd
p6141
aVLoss
p6142
aS''
aS''
aa(lp6143
VWeed, Chris
p6144
aVWin
p6145
aS''
aS''
aa(lp6146
VMikoleski, Stephen
p6147
aVWin
p6148
aS''
aS''
aa(lp6149
VWAGSTAFF, Evan
p6150
aVLoss
p6151
aS''
aS''
aa(lp6152
VBaylock, Deshaun
p6153
aVLoss
p6154
aS''
aS''
aassV14-04-4910100
p6155
(dp6156
g4
I0
sg5
Nsg6
I4
sg7
S''
sg8
I7
sg9
V454
p6157
sg11
V146
p6158
sg13
VColumbus, Ohio, United States
p6159
sg15
VMagic WPN Premium Tournament
p6160
sg17
g6155
sg18
VStandard
p6161
sg20
I11
sg21
S''
sg22
V2014-06-13
p6162
sg24
(lp6163
(lp6164
VWright, Jonathan
p6165
aVLoss
p6166
aS''
aS''
aa(lp6167
VRavitz, Joshua
p6168
aVWin
p6169
aS''
aS''
aa(lp6170
VYurchick, Adam
p6171
aVLoss
p6172
aS''
aS''
aa(lp6173
VParkinson, James
p6174
aVLoss
p6175
aS''
aS''
aa(lp6176
VCyr, Shawn
p6177
aVWin
p6178
aS''
aS''
aa(lp6179
VHiroki, Kenta
p6180
aVWin
p6181
aS''
aS''
aa(lp6182
VBaylock, Deshaun
p6183
aVWin
p6184
aS''
aS''
aa(lp6185
VMize, Logan
p6186
aVLoss
p6187
aS''
aS''
aa(lp6188
Vwise, steve
p6189
aVLoss
p6190
aS''
aS''
aa(lp6191
VSevers, Shane
p6192
aVLoss
p6193
aS''
aS''
aa(lp6194
VMuller, Greg
p6195
aVLoss
p6196
aS''
aS''
aassV14-04-4910103
p6197
(dp6198
g4
I1
sg5
Nsg6
I7
sg7
S''
sg8
I2
sg9
V450
p6199
sg11
V22
p6200
sg13
VColumbus, Ohio, United States
p6201
sg15
VMagic WPN Premium Tournament
p6202
sg17
g6197
sg18
VLegacy
p6203
sg20
I10
sg21
S''
sg22
V2014-06-15
p6204
sg24
(lp6205
(lp6206
Vminniear, adam
p6207
aVWin
p6208
aS''
aS''
aa(lp6209
VThompson, Gerry
p6210
aVWin
p6211
aS''
aS''
aa(lp6212
VLauer, Steven
p6213
aVWin
p6214
aS''
aS''
aa(lp6215
VGraveno, Evan
p6216
aVWin
p6217
aS''
aS''
aa(lp6218
VBauer, David
p6219
aVLoss
p6220
aS''
aS''
aa(lp6221
VElden, Dave
p6222
aVWin
p6223
aS''
aS''
aa(lp6224
VHsu, Jeremy
p6225
aVWin
p6226
aS''
aS''
aa(lp6227
VSmith, Derrik
p6228
aVWin
p6229
aS''
aS''
aa(lp6230
VMitchell, Greg
p6231
aVLoss
p6232
aS''
aS''
aa(lp6233
VMispagel, Joey
p6234
aVDraw
p6235
aS''
aS''
aassV14-08-5511852
p6236
(dp6237
g4
I0
sg5
Nsg6
I4
sg7
S''
sg8
I2
sg9
V44
p6238
sg11
V13
p6239
sg13
VLemont, Illinois, United States
p6240
sg15
g96
sg17
g6236
sg18
VStandard
p6241
sg20
I6
sg21
S''
sg22
V2014-08-23
p6242
sg24
(lp6243
(lp6244
VVargas, Brandon
p6245
aVWin
p6246
aS''
aS''
aa(lp6247
VYoung, Kenneth
p6248
aVLoss
p6249
aS''
aS''
aa(lp6250
Vdeng, steven
p6251
aVLoss
p6252
aS''
aS''
aa(lp6253
VLagger, Gregg
p6254
aVWin
p6255
aS''
aS''
aa(lp6256
VWynn, Eric
p6257
aVWin
p6258
aS''
aS''
aa(lp6259
VKarasek, Jerad
p6260
aVWin
p6261
aS''
aS''
aassV14-01-4679302
p6262
(dp6263
g4
I0
sg5
Nsg6
I2
sg7
S''
sg8
I4
sg9
V361
p6264
sg11
V140
p6265
sg13
VCharlotte, North Carolina, United States
p6266
sg15
VMagic WPN Premium Tournament
p6267
sg17
g6262
sg18
VLegacy
p6268
sg20
I6
sg21
S''
sg22
V2014-03-28
p6269
sg24
(lp6270
(lp6271
VArnold, Chris
p6272
aVLoss
p6273
aS''
aS''
aa(lp6274
VMann, Stephen
p6275
aVWin
p6276
aS''
aS''
aa(lp6277
Vcalhoun, christopher
p6278
aVWin
p6279
aS''
aS''
aa(lp6280
VMize, Logan
p6281
aVLoss
p6282
aS''
aS''
aa(lp6283
VSweeny, Cody
p6284
aVLoss
p6285
aS''
aS''
aa(lp6286
VCopenhaver, Eric
p6287
aVLoss
p6288
aS''
aS''
aassV12-08-3521185
p6289
(dp6290
g4
I0
sg5
Nsg6
I2
sg7
S''
sg8
I2
sg9
V34
p6291
sg11
V14
p6292
sg13
VBloomington, Illinois, United States
p6293
sg15
VFriday Night Magic
p6294
sg17
g6289
sg18
VStandard
p6295
sg20
I4
sg21
S''
sg22
V2012-08-03
p6296
sg24
(lp6297
(lp6298
VLamb, Matt
p6299
aVWin
p6300
aS''
aS''
aa(lp6301
VBodenbach, Ken
p6302
aVLoss
p6303
aS''
aS''
aa(lp6304
VGorrie, Steve
p6305
aVWin
p6306
aS''
aS''
aa(lp6307
VNorton, Matt
p6308
aVLoss
p6309
aS''
aS''
aassV12-07-3576765
p6310
(dp6311
g4
I2
sg5
Nsg6
I3
sg7
S''
sg8
I1
sg9
V32
p6312
sg11
V5
sg13
VColumbus, Ohio, United States
p6313
sg15
g96
sg17
g6310
sg18
VStandard
p6314
sg20
I6
sg21
S''
sg22
V2012-07-21
p6315
sg24
(lp6316
(lp6317
VSpears, Judah
p6318
aVWin
p6319
aS''
aS''
aa(lp6320
VSleasman, Lucas
p6321
aVWin
p6322
aS''
aS''
aa(lp6323
VGillis, Dan
p6324
aVWin
p6325
aS''
aS''
aa(lp6326
VGangwer, Ben
p6327
aVDraw
p6328
aS''
aS''
aa(lp6329
VBoland, Michael
p6330
aVDraw
p6331
aS''
aS''
aa(lp6332
VGangwer, Ben
p6333
aVLoss
p6334
aS''
aS''
aassV13-06-4334387
p6335
(dp6336
g4
I0
sg5
Nsg6
I3
sg7
S''
sg8
I0
sg9
V8
sg11
V1
sg13
VBloomington, Illinois, United States
p6337
sg15
g96
sg17
g6335
sg18
VCasual - Constructed
p6338
sg20
I3
sg21
S''
sg22
V2013-06-12
p6339
sg24
(lp6340
(lp6341
VLamb, Matt
p6342
aVWin
p6343
aS''
aS''
aa(lp6344
VSmiley, Chance
p6345
aVWin
p6346
aS''
aS''
aa(lp6347
VWoerner, Nick
p6348
aVWin
p6349
aS''
aS''
aassV14-01-4910005
p6350
(dp6351
g4
I0
sg5
Nsg6
I7
sg7
S''
sg8
I3
sg9
V636
p6352
sg11
V86
p6353
sg13
VMilwaukee, Wisconsin, United States
p6354
sg15
VMagic WPN Premium Tournament
p6355
sg17
g6350
sg18
VStandard
p6356
sg20
I10
sg21
S''
sg22
V2014-04-05
p6357
sg24
(lp6358
(lp6359
VGRADERT, RUSSELL
p6360
aVWin
p6361
aS''
aS''
aa(lp6362
Vmerrick, greg
p6363
aVWin
p6364
aS''
aS''
aa(lp6365
VVang, TEE
p6366
aVWin
p6367
aS''
aS''
aa(lp6368
VLARK, BRIAN
p6369
aVLoss
p6370
aS''
aS''
aa(lp6371
VBlanchard, Michael
p6372
aVLoss
p6373
aS''
aS''
aa(lp6374
VKAKUGAWA, KAWIKA
p6375
aVLoss
p6376
aS''
aS''
aa(lp6377
VBridges, Alex
p6378
aVWin
p6379
aS''
aS''
aa(lp6380
VMORGAN, JAKEB
p6381
aVWin
p6382
aS''
aS''
aa(lp6383
VDavidson, Keenan
p6384
aVWin
p6385
aS''
aS''
aa(lp6386
VSanford, Ben
p6387
aVWin
p6388
aS''
aS''
aassV13-03-4097930
p6389
(dp6390
g4
I1
sg5
Nsg6
I6
sg7
S''
sg8
I2
sg9
V49
p6391
sg11
V2
sg13
VBloomington, Illinois, United States
p6392
sg15
g96
sg17
g6389
sg18
VStandard
p6393
sg20
I9
sg21
S''
sg22
V2013-03-30
p6394
sg24
(lp6395
(lp6396
VMcclure, Alec
p6397
aVWin
p6398
aS''
aS''
aa(lp6399
VCarmody, Michael
p6400
aVWin
p6401
aS''
aS''
aa(lp6402
VRasmussen, Jeff
p6403
aVLoss
p6404
aS''
aS''
aa(lp6405
VStrause, Garrett
p6406
aVWin
p6407
aS''
aS''
aa(lp6408
VBrabant, Peter
p6409
aVWin
p6410
aS''
aS''
aa(lp6411
VMoore, Andy
p6412
aVDraw
p6413
aS''
aS''
aa(lp6414
VWhitcomb, Andrew
p6415
aVWin
p6416
aS''
aS''
aa(lp6417
VMoore, Andy
p6418
aVWin
p6419
aS''
aS''
aa(lp6420
VMARION, ANDREW
p6421
aVLoss
p6422
aS''
aS''
aassV13-05-4294130
p6423
(dp6424
g4
I0
sg5
Nsg6
I3
sg7
S''
sg8
I0
sg9
V6
sg11
V1
sg13
VBloomington, Illinois, United States
p6425
sg15
g96
sg17
g6423
sg18
VCasual - Constructed
p6426
sg20
I3
sg21
S''
sg22
V2013-05-29
p6427
sg24
(lp6428
(lp6429
VPeterson, Jeremy
p6430
aVWin
p6431
aS''
aS''
aa(lp6432
VHOLT, ZACK
p6433
aVWin
p6434
aS''
aS''
aa(lp6435
VGorrie, Steve
p6436
aVWin
p6437
aS''
aS''
aassV12-04-3287073
p6438
(dp6439
g4
I1
sg5
Nsg6
I7
sg7
S''
sg8
I2
sg9
V278
p6440
sg11
V7
sg13
VDes Moines, Iowa, United States
p6441
sg15
VMagic WPN Premium Tournament
p6442
sg17
g6438
sg18
VStandard
p6443
sg20
I10
sg21
S''
sg22
V2012-04-07
p6444
sg24
(lp6445
(lp6446
VMeis, Caleb
p6447
aVWin
p6448
aS''
aS''
aa(lp6449
VSulwer, Anthony
p6450
aVWin
p6451
aS''
aS''
aa(lp6452
VMcDaniel, Jon
p6453
aVWin
p6454
aS''
aS''
aa(lp6455
VMiller, Ben
p6456
aVWin
p6457
aS''
aS''
aa(lp6458
VAnderson, Ryan
p6459
aVWin
p6460
aS''
aS''
aa(lp6461
VRatcliff, Steven T
p6462
aVLoss
p6463
aS''
aS''
aa(lp6464
VLeyden, Tony J
p6465
aVWin
p6466
aS''
aS''
aa(lp6467
VCarlson, MATT
p6468
aVWin
p6469
aS''
aS''
aa(lp6470
VMohon, Nicholas
p6471
aVDraw
p6472
aS''
aS''
aa(lp6473
VBoyd, Adam S
p6474
aVLoss
p6475
aS''
aS''
aassV12-02-3190743
p6476
(dp6477
g4
I0
sg5
Nsg6
I2
sg7
S''
sg8
I2
sg9
V28
p6478
sg11
V10
p6479
sg13
VBloomington, Illinois, United States
p6480
sg15
VFriday Night Magic
p6481
sg17
g6476
sg18
VStandard
p6482
sg20
I4
sg21
S''
sg22
V2012-02-24
p6483
sg24
(lp6484
(lp6485
VPoirier, Marc D
p6486
aVLoss
p6487
aS''
aS''
aa(lp6488
VPeterson, Jeremy
p6489
aVWin
p6490
aS''
aS''
aa(lp6491
VGarrett, Mark A
p6492
aVWin
p6493
aS''
aS''
aa(lp6494
VLien, Seth
p6495
aVLoss
p6496
aS''
aS''
aassV12-04-3287076
p6497
(dp6498
g4
I0
sg5
Nsg6
I4
sg7
S''
sg8
I3
sg9
V148
p6499
sg11
V50
p6500
sg13
VDes Moines, Iowa, United States
p6501
sg15
VMagic WPN Premium Tournament
p6502
sg17
g6497
sg18
VLegacy
p6503
sg20
I7
sg21
S''
sg22
V2012-04-08
p6504
sg24
(lp6505
(lp6506
VPalmer, Clayton
p6507
aVWin
p6508
aS''
aS''
aa(lp6509
VLussier, Dustin
p6510
aVLoss
p6511
aS''
aS''
aa(lp6512
VWaltermate, Lloyd
p6513
aVLoss
p6514
aS''
aS''
aa(lp6515
VBecker, Ethan
p6516
aVWin
p6517
aS''
aS''
aa(lp6518
VHiner, David
p6519
aVWin
p6520
aS''
aS''
aa(lp6521
VRubenzer, Paul G
p6522
aVWin
p6523
aS''
aS''
aa(lp6524
VSchousboe, Jason
p6525
aVLoss
p6526
aS''
aS''
aassV12-03-3356592
p6527
(dp6528
g4
I0
sg5
Nsg6
I2
sg7
S''
sg8
I3
sg9
V16
p6529
sg11
V9
sg13
VNiles, Illinois, United States
p6530
sg15
g96
sg17
g6527
sg18
VModern
p6531
sg20
I5
sg21
S''
sg22
V2012-03-31
p6532
sg24
(lp6533
(lp6534
VDowns, Austin
p6535
aVWin
p6536
aS''
aS''
aa(lp6537
VMARION, ANDREW S
p6538
aVLoss
p6539
aS''
aS''
aa(lp6540
VTakahashi, Matthew
p6541
aVLoss
p6542
aS''
aS''
aa(lp6543
VLakas, John
p6544
aVWin
p6545
aS''
aS''
aa(lp6546
VFang, Harrison
p6547
aVLoss
p6548
aS''
aS''
aassV12-09-3574540
p6549
(dp6550
g4
I0
sg5
Nsg6
I4
sg7
S''
sg8
I0
sg9
V34
p6551
sg11
V2
sg13
VBloomington, Illinois, United States
p6552
sg15
VFriday Night Magic
p6553
sg17
g6549
sg18
VStandard
p6554
sg20
I4
sg21
S''
sg22
V2012-09-07
p6555
sg24
(lp6556
(lp6557
VHarris, Michael
p6558
aVWin
p6559
aS''
aS''
aa(lp6560
VYONKE, TYLER
p6561
aVWin
p6562
aS''
aS''
aa(lp6563
VSchaefer, Josh
p6564
aVWin
p6565
aS''
aS''
aa(lp6566
VKletz, Michael
p6567
aVWin
p6568
aS''
aS''
aassV12-06-3379026
p6569
(dp6570
g4
I1
sg5
Nsg6
I5
sg7
S''
sg8
I2
sg9
V38
p6571
sg11
V3
sg13
VBloomington, Illinois, United States
p6572
sg15
VMagic Grand Prix Trial
p6573
sg17
g6569
sg18
VLegacy
p6574
sg20
I8
sg21
S''
sg22
V2012-06-09
p6575
sg24
(lp6576
(lp6577
VWatts, Zach
p6578
aVWin
p6579
aS''
aS''
aa(lp6580
VMILLER, ANDY
p6581
aVWin
p6582
aS''
aS''
aa(lp6583
VBopp, Kevin
p6584
aVLoss
p6585
aS''
aS''
aa(lp6586
VWatts, Andrew
p6587
aVWin
p6588
aS''
aS''
aa(lp6589
VKaterberg, Mark
p6590
aVWin
p6591
aS''
aS''
aa(lp6592
VWu, Colin
p6593
aVDraw
p6594
aS''
aS''
aa(lp6595
VRasmussen, Jeff
p6596
aVWin
p6597
aS''
aS''
aa(lp6598
VMARION, ANDREW
p6599
aVLoss
p6600
aS''
aS''
aassV12-09-3574545
p6601
(dp6602
g4
I0
sg5
Nsg6
I3
sg7
S''
sg8
I1
sg9
V38
p6603
sg11
V7
sg13
VBloomington, Illinois, United States
p6604
sg15
VFriday Night Magic
p6605
sg17
g6601
sg18
VStandard
p6606
sg20
I4
sg21
S''
sg22
V2012-09-14
p6607
sg24
(lp6608
(lp6609
VStoops, Eric
p6610
aVWin
p6611
aS''
aS''
aa(lp6612
VTompkins, Matthew
p6613
aVLoss
p6614
aS''
aS''
aa(lp6615
VSaruwatari, Tim
p6616
aVWin
p6617
aS''
aS''
aa(lp6618
VMoore, Andy
p6619
aVWin
p6620
aS''
aS''
aassV11-05-2758667
p6621
(dp6622
g4
I0
sg5
Nsg6
I3
sg7
S''
sg8
I2
sg9
V32
p6623
sg11
V11
p6624
sg13
VOak Lawn, Illinois, United States
p6625
sg15
VMagic Prerelease
p6626
sg17
g6621
sg18
VSealed
p6627
sg20
I5
sg21
S''
sg22
V2011-05-07
p6628
sg24
(lp6629
(lp6630
Vstenhouse, david
p6631
aVWin
p6632
aS''
aS''
aa(lp6633
VWilson, David
p6634
aVWin
p6635
aS''
aS''
aa(lp6636
VBurica, Matt
p6637
aVLoss
p6638
aS''
aS''
aa(lp6639
VEckert, Alan
p6640
aVLoss
p6641
aS''
aS''
aa(lp6642
Vselby, TYLER
p6643
aVWin
p6644
aS''
aS''
aassV12-01-3104790
p6645
(dp6646
g4
I0
sg5
Nsg6
I2
sg7
S''
sg8
I3
sg9
V297
p6647
sg11
V195
p6648
sg13
VSharonville, Ohio, United States
p6649
sg15
VMagic WPN Premium Tournament
p6650
sg17
g6645
sg18
VLegacy
p6651
sg20
I5
sg21
S''
sg22
V2012-02-12
p6652
sg24
(lp6653
(lp6654
VFay, Korey J
p6655
aVWin
p6656
aS''
aS''
aa(lp6657
VAugustine, Mike
p6658
aVLoss
p6659
aS''
aS''
aa(lp6660
VPitstick, David
p6661
aVLoss
p6662
aS''
aS''
aa(lp6663
VGaines, Wes
p6664
aVWin
p6665
aS''
aS''
aa(lp6666
VCarpenter, James
p6667
aVLoss
p6668
aS''
aS''
aassV13-04-3967645
p6669
(dp6670
g4
I2
sg5
Nsg6
I9
sg7
S''
sg8
I1
sg9
V279
p6671
sg11
V2
sg13
VMilwaukee, Wisconsin, United States
p6672
sg15
VMagic WPN Premium Tournament
p6673
sg17
g6669
sg18
VLegacy
p6674
sg20
I12
sg21
S''
sg22
V2013-04-14
p6675
sg24
(lp6676
(lp6677
VRoth, Kevin
p6678
aVWin
p6679
aS''
aS''
aa(lp6680
VNELSON, TOM
p6681
aVWin
p6682
aS''
aS''
aa(lp6683
VKaufmann, Joseph
p6684
aVWin
p6685
aS''
aS''
aa(lp6686
VKowal, Brian
p6687
aVWin
p6688
aS''
aS''
aa(lp6689
VBlyden, Jeff
p6690
aVWin
p6691
aS''
aS''
aa(lp6692
VBuzzie, Daniel
p6693
aVWin
p6694
aS''
aS''
aa(lp6695
VTripp, Jason
p6696
aVWin
p6697
aS''
aS''
aa(lp6698
VNowak, Daniel
p6699
aVDraw
p6700
aS''
aS''
aa(lp6701
VBarber-callaghan, David
p6702
aVDraw
p6703
aS''
aS''
aa(lp6704
VSchneck, Jason
p6705
aVWin
p6706
aS''
aS''
aa(lp6707
VLundquist, Benjamin
p6708
aVWin
p6709
aS''
aS''
aa(lp6710
VJansen, Adam
p6711
aVLoss
p6712
aS''
aS''
aassV11-07-2838830
p6713
(dp6714
g4
I0
sg5
Nsg6
I0
sg7
S''
sg8
I3
sg9
V45
p6715
sg11
V36
p6716
sg13
VLemont, Illinois, United States
p6717
sg15
VFriday Night Magic
p6718
sg17
g6713
sg18
VStandard
p6719
sg20
I3
sg21
S''
sg22
V2011-07-29
p6720
sg24
(lp6721
(lp6722
VVeronda, Kyle
p6723
aVLoss
p6724
aS''
aS''
aa(lp6725
VVlasak, Kyle r
p6726
aVLoss
p6727
aS''
aS''
aa(lp6728
VShores, Britton
p6729
aVLoss
p6730
aS''
aS''
aassV14-08-5562865
p6731
(dp6732
g4
I2
sg5
Nsg6
I3
sg7
S''
sg8
I1
sg9
V24
p6733
sg11
V5
sg13
VGlenview, Illinois, United States
p6734
sg15
g96
sg17
g6731
sg18
VStandard
p6735
sg20
I6
sg21
S''
sg22
V2014-08-24
p6736
sg24
(lp6737
(lp6738
VWILSON, SAMUEL
p6739
aVWin
p6740
aS''
aS''
aa(lp6741
VSeay, Roland
p6742
aVWin
p6743
aS''
aS''
aa(lp6744
VWILBANKS, CLAYTON
p6745
aVWin
p6746
aS''
aS''
aa(lp6747
VAdapon, Antonio
p6748
aVDraw
p6749
aS''
aS''
aa(lp6750
VJensen, Jacob
p6751
aVDraw
p6752
aS''
aS''
aa(lp6753
VLarsen, Nick
p6754
aVLoss
p6755
aS''
aS''
aassV12-02-3190738
p6756
(dp6757
g4
I0
sg5
Nsg6
I0
sg7
S''
sg8
I2
sg9
V23
p6758
sg11
V23
p6759
sg13
VBloomington, Illinois, United States
p6760
sg15
VFriday Night Magic
p6761
sg17
g6756
sg18
VStandard
p6762
sg20
I2
sg21
S''
sg22
V2012-02-03
p6763
sg24
(lp6764
(lp6765
VFarrell, Brett
p6766
aVLoss
p6767
aS''
aS''
aa(lp6768
VSUSSMAN, ROB A
p6769
aVLoss
p6770
aS''
aS''
aassV13-05-4108886
p6771
(dp6772
g4
I0
sg5
Nsg6
I4
sg7
S''
sg8
I0
sg9
V27
p6773
sg11
V2
sg13
VBloomington, Illinois, United States
p6774
sg15
VFriday Night Magic
p6775
sg17
g6771
sg18
VStandard
p6776
sg20
I4
sg21
S''
sg22
V2013-05-03
p6777
sg24
(lp6778
(lp6779
VMILBY, LUKE
p6780
aVWin
p6781
aS''
aS''
aa(lp6782
VGregory, Christopher
p6783
aVWin
p6784
aS''
aS''
aa(lp6785
VNardone, Chris
p6786
aVWin
p6787
aS''
aS''
aa(lp6788
VMoore, Andy
p6789
aVWin
p6790
aS''
aS''
aassV13-03-3964109
p6791
(dp6792
g4
I0
sg5
Nsg6
I8
sg7
S''
sg8
I2
sg9
V455
p6793
sg11
V15
p6794
sg13
VKansas City, Missouri, United States
p6795
sg15
VMagic WPN Premium Tournament
p6796
sg17
g6791
sg18
VStandard
p6797
sg20
I10
sg21
S''
sg22
V2013-03-23
p6798
sg24
(lp6799
(lp6800
VDembinski, Kyle
p6801
aVWin
p6802
aS''
aS''
aa(lp6803
VVanasselt, Willem
p6804
aVLoss
p6805
aS''
aS''
aa(lp6806
VKlima, Patrick
p6807
aVWin
p6808
aS''
aS''
aa(lp6809
VBackstrom, Lars
p6810
aVLoss
p6811
aS''
aS''
aa(lp6812
VFender, Nathan
p6813
aVWin
p6814
aS''
aS''
aa(lp6815
VRasmussen, Jeff
p6816
aVWin
p6817
aS''
aS''
aa(lp6818
VBEECH, CLIFTON
p6819
aVWin
p6820
aS''
aS''
aa(lp6821
VWolfmeyer, Chris
p6822
aVWin
p6823
aS''
aS''
aa(lp6824
VBailey, Joni
p6825
aVWin
p6826
aS''
aS''
aa(lp6827
VGallagher, Paul
p6828
aVWin
p6829
aS''
aS''
aass.